
hello1:     file format elf64-littleriscv


Disassembly of section .text:

0000000000010258 <.text>:
   10258:	1141                	addi	sp,sp,-16
   1025a:	e022                	sd	s0,0(sp)
   1025c:	e406                	sd	ra,8(sp)
   1025e:	0800                	addi	s0,sp,16
   10260:	004000ef          	jal	0x10264
   10264:	7155                	addi	sp,sp,-208
   10266:	e1a2                	sd	s0,192(sp)
   10268:	fd26                	sd	s1,184(sp)
   1026a:	f94a                	sd	s2,176(sp)
   1026c:	f54e                	sd	s3,168(sp)
   1026e:	0980                	addi	s0,sp,208
   10270:	e586                	sd	ra,200(sp)
   10272:	00078497          	auipc	s1,0x78
   10276:	62e48493          	addi	s1,s1,1582 # 0x888a0
   1027a:	649c                	ld	a5,8(s1)
   1027c:	00072717          	auipc	a4,0x72
   10280:	99473703          	ld	a4,-1644(a4) # 0x81c10
   10284:	6314                	ld	a3,0(a4)
   10286:	fcd43423          	sd	a3,-56(s0)
   1028a:	4681                	li	a3,0
   1028c:	8a020993          	addi	s3,tp,-1888 # 0xfffffffffffff8a0
   10290:	8926                	mv	s2,s1
   10292:	03378063          	beq	a5,s3,0x102b2
   10296:	4705                	li	a4,1
   10298:	1404a7af          	lr.w.aq	a5,(s1)
   1029c:	e781                	bnez	a5,0x102a4
   1029e:	18e4a6af          	sc.w	a3,a4,(s1)
   102a2:	fafd                	bnez	a3,0x10298
   102a4:	2781                	sext.w	a5,a5
   102a6:	c781                	beqz	a5,0x102ae
   102a8:	8526                	mv	a0,s1
   102aa:	13e050ef          	jal	0x153e8
   102ae:	0134b423          	sd	s3,8(s1)
   102b2:	40dc                	lw	a5,4(s1)
   102b4:	4898                	lw	a4,16(s1)
   102b6:	2785                	addiw	a5,a5,1
   102b8:	c0dc                	sw	a5,4(s1)
   102ba:	e305                	bnez	a4,0x102da
   102bc:	4785                	li	a5,1
   102be:	c89c                	sw	a5,16(s1)
   102c0:	02000793          	li	a5,32
   102c4:	f2f43823          	sd	a5,-208(s0)
   102c8:	08700893          	li	a7,135
   102cc:	4505                	li	a0,1
   102ce:	f3040593          	addi	a1,s0,-208
   102d2:	4601                	li	a2,0
   102d4:	46a1                	li	a3,8
   102d6:	00000073          	ecall
   102da:	4898                	lw	a4,16(s1)
   102dc:	4785                	li	a5,1
   102de:	06f71863          	bne	a4,a5,0x1034e
   102e2:	40dc                	lw	a5,4(s1)
   102e4:	00078697          	auipc	a3,0x78
   102e8:	5c06a623          	sw	zero,1484(a3) # 0x888b0
   102ec:	fff7869b          	addiw	a3,a5,-1
   102f0:	c0d4                	sw	a3,4(s1)
   102f2:	87b6                	mv	a5,a3
   102f4:	e285                	bnez	a3,0x10314
   102f6:	00078697          	auipc	a3,0x78
   102fa:	5a06b923          	sd	zero,1458(a3) # 0x888a8
   102fe:	0af927af          	amoswap.w.rl	a5,a5,(s2)
   10302:	2781                	sext.w	a5,a5
   10304:	00f75863          	bge	a4,a5,0x10314
   10308:	00078517          	auipc	a0,0x78
   1030c:	59850513          	addi	a0,a0,1432 # 0x888a0
   10310:	17e050ef          	jal	0x1548e
   10314:	4519                	li	a0,6
   10316:	5182f0ef          	jal	0x3f82e
   1031a:	649c                	ld	a5,8(s1)
   1031c:	8a020993          	addi	s3,tp,-1888 # 0xfffffffffffff8a0
   10320:	03378363          	beq	a5,s3,0x10346
   10324:	4705                	li	a4,1
   10326:	140927af          	lr.w.aq	a5,(s2)
   1032a:	e781                	bnez	a5,0x10332
   1032c:	18e926af          	sc.w	a3,a4,(s2)
   10330:	fafd                	bnez	a3,0x10326
   10332:	2781                	sext.w	a5,a5
   10334:	c799                	beqz	a5,0x10342
   10336:	00078517          	auipc	a0,0x78
   1033a:	56a50513          	addi	a0,a0,1386 # 0x888a0
   1033e:	0aa050ef          	jal	0x153e8
   10342:	0134b423          	sd	s3,8(s1)
   10346:	40dc                	lw	a5,4(s1)
   10348:	2785                	addiw	a5,a5,1
   1034a:	c0dc                	sw	a5,4(s1)
   1034c:	a021                	j	0x10354
   1034e:	4789                	li	a5,2
   10350:	02f71463          	bne	a4,a5,0x10378
   10354:	f3040793          	addi	a5,s0,-208
   10358:	09800613          	li	a2,152
   1035c:	4581                	li	a1,0
   1035e:	853e                	mv	a0,a5
   10360:	470d                	li	a4,3
   10362:	c898                	sw	a4,16(s1)
   10364:	5700a0ef          	jal	0x1a8d4
   10368:	85aa                	mv	a1,a0
   1036a:	57fd                	li	a5,-1
   1036c:	4601                	li	a2,0
   1036e:	4519                	li	a0,6
   10370:	f2f43c23          	sd	a5,-200(s0)
   10374:	4ec2f0ef          	jal	0x3f860
   10378:	4898                	lw	a4,16(s1)
   1037a:	478d                	li	a5,3
   1037c:	00f71763          	bne	a4,a5,0x1038a
   10380:	4791                	li	a5,4
   10382:	4519                	li	a0,6
   10384:	c89c                	sw	a5,16(s1)
   10386:	4a82f0ef          	jal	0x3f82e
   1038a:	489c                	lw	a5,16(s1)
   1038c:	4711                	li	a4,4
   1038e:	00e79563          	bne	a5,a4,0x10398
   10392:	4795                	li	a5,5
   10394:	c89c                	sw	a5,16(s1)
   10396:	9002                	ebreak
   10398:	4715                	li	a4,5
   1039a:	00e79863          	bne	a5,a4,0x103aa
   1039e:	4799                	li	a5,6
   103a0:	07f00513          	li	a0,127
   103a4:	c89c                	sw	a5,16(s1)
   103a6:	72a0b0ef          	jal	0x1bad0
   103aa:	9002                	ebreak
   103ac:	1101                	addi	sp,sp,-32
   103ae:	e822                	sd	s0,16(sp)
   103b0:	e04a                	sd	s2,0(sp)
   103b2:	842e                	mv	s0,a1
   103b4:	892a                	mv	s2,a0
   103b6:	852e                	mv	a0,a1
   103b8:	e426                	sd	s1,8(sp)
   103ba:	ec06                	sd	ra,24(sp)
   103bc:	2ed3f0ef          	jal	0x4fea8
   103c0:	4444                	lw	s1,12(s0)
   103c2:	e085                	bnez	s1,0x103e2
   103c4:	441c                	lw	a5,8(s0)
   103c6:	cf91                	beqz	a5,0x103e2
   103c8:	02049713          	slli	a4,s1,0x20
   103cc:	01c75793          	srli	a5,a4,0x1c
   103d0:	97a2                	add	a5,a5,s0
   103d2:	6f8c                	ld	a1,24(a5)
   103d4:	854a                	mv	a0,s2
   103d6:	2485                	addiw	s1,s1,1
   103d8:	fd5ff0ef          	jal	0x103ac
   103dc:	441c                	lw	a5,8(s0)
   103de:	fef4e5e3          	bltu	s1,a5,0x103c8
   103e2:	4789                	li	a5,2
   103e4:	c45c                	sw	a5,12(s0)
   103e6:	00890713          	addi	a4,s2,8
   103ea:	0330000f          	fence	rw,rw
   103ee:	631c                	ld	a5,0(a4)
   103f0:	0230000f          	fence	r,rw
   103f4:	ec1c                	sd	a5,24(s0)
   103f6:	160736af          	lr.d.aqrl	a3,(a4)
   103fa:	00f69563          	bne	a3,a5,0x10404
   103fe:	1a87362f          	sc.d.rl	a2,s0,(a4)
   10402:	fa75                	bnez	a2,0x103f6
   10404:	40f68633          	sub	a2,a3,a5
   10408:	87b6                	mv	a5,a3
   1040a:	f66d                	bnez	a2,0x103f4
   1040c:	8522                	mv	a0,s0
   1040e:	6442                	ld	s0,16(sp)
   10410:	60e2                	ld	ra,24(sp)
   10412:	64a2                	ld	s1,8(sp)
   10414:	6902                	ld	s2,0(sp)
   10416:	6105                	addi	sp,sp,32
   10418:	0364006f          	j	0x5044e
   1041c:	1101                	addi	sp,sp,-32
   1041e:	e426                	sd	s1,8(sp)
   10420:	ec06                	sd	ra,24(sp)
   10422:	e822                	sd	s0,16(sp)
   10424:	84aa                	mv	s1,a0
   10426:	4581                	li	a1,0
   10428:	0eb535af          	amoswap.d.aqrl	a1,a1,(a0)
   1042c:	ed91                	bnez	a1,0x10448
   1042e:	6480                	ld	s0,8(s1)
   10430:	c419                	beqz	s0,0x1043e
   10432:	8522                	mv	a0,s0
   10434:	6c00                	ld	s0,24(s0)
   10436:	06e090ef          	jal	0x194a4
   1043a:	e480                	sd	s0,8(s1)
   1043c:	f87d                	bnez	s0,0x10432
   1043e:	60e2                	ld	ra,24(sp)
   10440:	6442                	ld	s0,16(sp)
   10442:	64a2                	ld	s1,8(sp)
   10444:	6105                	addi	sp,sp,32
   10446:	8082                	ret
   10448:	f65ff0ef          	jal	0x103ac
   1044c:	b7cd                	j	0x1042e
   1044e:	1141                	addi	sp,sp,-16
   10450:	00079517          	auipc	a0,0x79
   10454:	81050513          	addi	a0,a0,-2032 # 0x88c60
   10458:	e406                	sd	ra,8(sp)
   1045a:	fc3ff0ef          	jal	0x1041c
   1045e:	00078517          	auipc	a0,0x78
   10462:	7ea50513          	addi	a0,a0,2026 # 0x88c48
   10466:	fb7ff0ef          	jal	0x1041c
   1046a:	60a2                	ld	ra,8(sp)
   1046c:	4785                	li	a5,1
   1046e:	00079717          	auipc	a4,0x79
   10472:	80f70523          	sb	a5,-2038(a4) # 0x88c78
   10476:	0141                	addi	sp,sp,16
   10478:	8082                	ret
   1047a:	0000                	unimp
   1047c:	024000ef          	jal	0x104a0
   10480:	87aa                	mv	a5,a0
   10482:	00000517          	auipc	a0,0x0
   10486:	01c50513          	addi	a0,a0,28 # 0x1049e
   1048a:	6582                	ld	a1,0(sp)
   1048c:	0030                	addi	a2,sp,8
   1048e:	ff017113          	andi	sp,sp,-16
   10492:	4681                	li	a3,0
   10494:	4701                	li	a4,0
   10496:	880a                	mv	a6,sp
   10498:	1a8000ef          	jal	0x10640
   1049c:	9002                	ebreak
   1049e:	a87d                	j	0x1055c
   104a0:	00074197          	auipc	gp,0x74
   104a4:	bf818193          	addi	gp,gp,-1032 # 0x84098
   104a8:	8082                	ret
   104aa:	0000                	unimp
   104ac:	00084537          	lui	a0,0x84
   104b0:	00084737          	lui	a4,0x84
   104b4:	89850793          	addi	a5,a0,-1896 # 0x83898
   104b8:	89870713          	addi	a4,a4,-1896 # 0x83898
   104bc:	00f70863          	beq	a4,a5,0x104cc
   104c0:	00000793          	li	a5,0
   104c4:	c781                	beqz	a5,0x104cc
   104c6:	89850513          	addi	a0,a0,-1896
   104ca:	8782                	jr	a5
   104cc:	8082                	ret
   104ce:	00084537          	lui	a0,0x84
   104d2:	89850793          	addi	a5,a0,-1896 # 0x83898
   104d6:	00084737          	lui	a4,0x84
   104da:	89870593          	addi	a1,a4,-1896 # 0x83898
   104de:	8d9d                	sub	a1,a1,a5
   104e0:	4035d793          	srai	a5,a1,0x3
   104e4:	91fd                	srli	a1,a1,0x3f
   104e6:	95be                	add	a1,a1,a5
   104e8:	8585                	srai	a1,a1,0x1
   104ea:	c599                	beqz	a1,0x104f8
   104ec:	00000793          	li	a5,0
   104f0:	c781                	beqz	a5,0x104f8
   104f2:	89850513          	addi	a0,a0,-1896
   104f6:	8782                	jr	a5
   104f8:	8082                	ret
   104fa:	1141                	addi	sp,sp,-16
   104fc:	e022                	sd	s0,0(sp)
   104fe:	00084437          	lui	s0,0x84
   10502:	8a044783          	lbu	a5,-1888(s0) # 0x838a0
   10506:	e406                	sd	ra,8(sp)
   10508:	e38d                	bnez	a5,0x1052a
   1050a:	fa3ff0ef          	jal	0x104ac
   1050e:	000527b7          	lui	a5,0x52
   10512:	ca478793          	addi	a5,a5,-860 # 0x51ca4
   10516:	c799                	beqz	a5,0x10524
   10518:	0006e537          	lui	a0,0x6e
   1051c:	ac850513          	addi	a0,a0,-1336 # 0x6dac8
   10520:	784410ef          	jal	0x51ca4
   10524:	4785                	li	a5,1
   10526:	8af40023          	sb	a5,-1888(s0)
   1052a:	60a2                	ld	ra,8(sp)
   1052c:	6402                	ld	s0,0(sp)
   1052e:	0141                	addi	sp,sp,16
   10530:	8082                	ret
   10532:	000527b7          	lui	a5,0x52
   10536:	ae078793          	addi	a5,a5,-1312 # 0x51ae0
   1053a:	c385                	beqz	a5,0x1055a
   1053c:	000845b7          	lui	a1,0x84
   10540:	0006e537          	lui	a0,0x6e
   10544:	1141                	addi	sp,sp,-16
   10546:	8a858593          	addi	a1,a1,-1880 # 0x838a8
   1054a:	ac850513          	addi	a0,a0,-1336 # 0x6dac8
   1054e:	e406                	sd	ra,8(sp)
   10550:	590410ef          	jal	0x51ae0
   10554:	60a2                	ld	ra,8(sp)
   10556:	0141                	addi	sp,sp,16
   10558:	bf9d                	j	0x104ce
   1055a:	bf95                	j	0x104ce
   1055c:	1141                	addi	sp,sp,-16
   1055e:	e406                	sd	ra,8(sp)
   10560:	e022                	sd	s0,0(sp)
   10562:	0800                	addi	s0,sp,16
   10564:	00042517          	auipc	a0,0x42
   10568:	4b450513          	addi	a0,a0,1204 # 0x52a18
   1056c:	23f000ef          	jal	0x10faa
   10570:	4781                	li	a5,0
   10572:	853e                	mv	a0,a5
   10574:	60a2                	ld	ra,8(sp)
   10576:	6402                	ld	s0,0(sp)
   10578:	0141                	addi	sp,sp,16
   1057a:	8082                	ret
   1057c:	1101                	addi	sp,sp,-32
   1057e:	e426                	sd	s1,8(sp)
   10580:	0006e797          	auipc	a5,0x6e
   10584:	e2878793          	addi	a5,a5,-472 # 0x7e3a8
   10588:	0006e497          	auipc	s1,0x6e
   1058c:	e3048493          	addi	s1,s1,-464 # 0x7e3b8
   10590:	e822                	sd	s0,16(sp)
   10592:	e04a                	sd	s2,0(sp)
   10594:	ec06                	sd	ra,24(sp)
   10596:	1000                	addi	s0,sp,32
   10598:	8c9d                	sub	s1,s1,a5
   1059a:	4034d913          	srai	s2,s1,0x3
   1059e:	00090a63          	beqz	s2,0x105b2
   105a2:	14e1                	addi	s1,s1,-8
   105a4:	94be                	add	s1,s1,a5
   105a6:	609c                	ld	a5,0(s1)
   105a8:	197d                	addi	s2,s2,-1
   105aa:	14e1                	addi	s1,s1,-8
   105ac:	9782                	jalr	a5
   105ae:	fe091ce3          	bnez	s2,0x105a6
   105b2:	60e2                	ld	ra,24(sp)
   105b4:	6442                	ld	s0,16(sp)
   105b6:	64a2                	ld	s1,8(sp)
   105b8:	6902                	ld	s2,0(sp)
   105ba:	6105                	addi	sp,sp,32
   105bc:	8082                	ret
   105be:	7169                	addi	sp,sp,-304
   105c0:	f222                	sd	s0,288(sp)
   105c2:	f606                	sd	ra,296(sp)
   105c4:	1a00                	addi	s0,sp,304
   105c6:	87aa                	mv	a5,a0
   105c8:	ef840513          	addi	a0,s0,-264
   105cc:	eef43423          	sd	a5,-280(s0)
   105d0:	eeb43023          	sd	a1,-288(s0)
   105d4:	ecc43c23          	sd	a2,-296(s0)
   105d8:	55c000ef          	jal	0x10b34
   105dc:	e915                	bnez	a0,0x10610
   105de:	9a023683          	ld	a3,-1632(tp) # 0xfffffffffffff9a0
   105e2:	99823703          	ld	a4,-1640(tp) # 0xfffffffffffff998
   105e6:	ed843583          	ld	a1,-296(s0)
   105ea:	ee043503          	ld	a0,-288(s0)
   105ee:	ee843783          	ld	a5,-280(s0)
   105f2:	fce43c23          	sd	a4,-40(s0)
   105f6:	fcd43823          	sd	a3,-48(s0)
   105fa:	ef840713          	addi	a4,s0,-264
   105fe:	9ae23023          	sd	a4,-1632(tp) # 0xfffffffffffff9a0
   10602:	00078617          	auipc	a2,0x78
   10606:	ffe63603          	ld	a2,-2(a2) # 0x88600
   1060a:	9782                	jalr	a5
   1060c:	187000ef          	jal	0x10f92
   10610:	6b7040ef          	jal	0x154c6
   10614:	00072717          	auipc	a4,0x72
   10618:	f7470713          	addi	a4,a4,-140 # 0x82588
   1061c:	56fd                	li	a3,-1
   1061e:	00d727af          	amoadd.w	a5,a3,(a4)
   10622:	37fd                	addiw	a5,a5,-1
   10624:	cf81                	beqz	a5,0x1063c
   10626:	05d00893          	li	a7,93
   1062a:	4501                	li	a0,0
   1062c:	00000073          	ecall
   10630:	05d00893          	li	a7,93
   10634:	4501                	li	a0,0
   10636:	00000073          	ecall
   1063a:	b7f5                	j	0x10626
   1063c:	4501                	li	a0,0
   1063e:	b7f9                	j	0x1060c
   10640:	7119                	addi	sp,sp,-128
   10642:	00158713          	addi	a4,a1,1
   10646:	f8a2                	sd	s0,112(sp)
   10648:	f0ca                	sd	s2,96(sp)
   1064a:	ecce                	sd	s3,88(sp)
   1064c:	e0da                	sd	s6,64(sp)
   1064e:	fc5e                	sd	s7,56(sp)
   10650:	f862                	sd	s8,48(sp)
   10652:	fc86                	sd	ra,120(sp)
   10654:	f4a6                	sd	s1,104(sp)
   10656:	e8d2                	sd	s4,80(sp)
   10658:	e4d6                	sd	s5,72(sp)
   1065a:	f466                	sd	s9,40(sp)
   1065c:	f06a                	sd	s10,32(sp)
   1065e:	ec6e                	sd	s11,24(sp)
   10660:	0100                	addi	s0,sp,128
   10662:	070e                	slli	a4,a4,0x3
   10664:	9732                	add	a4,a4,a2
   10666:	00078b17          	auipc	s6,0x78
   1066a:	f9ab0b13          	addi	s6,s6,-102 # 0x88600
   1066e:	8bbe                	mv	s7,a5
   10670:	892e                	mv	s2,a1
   10672:	89b2                	mv	s3,a2
   10674:	8c2a                	mv	s8,a0
   10676:	00eb3023          	sd	a4,0(s6)
   1067a:	00071797          	auipc	a5,0x71
   1067e:	0d07b323          	sd	a6,198(a5) # 0x81740
   10682:	631c                	ld	a5,0(a4)
   10684:	0721                	addi	a4,a4,8
   10686:	fff5                	bnez	a5,0x10682
   10688:	853a                	mv	a0,a4
   1068a:	6f00d0ef          	jal	0x1dd7a
   1068e:	000b3503          	ld	a0,0(s6)
   10692:	00071497          	auipc	s1,0x71
   10696:	6664b483          	ld	s1,1638(s1) # 0x81cf8
   1069a:	00071a97          	auipc	s5,0x71
   1069e:	5f6aba83          	ld	s5,1526(s5) # 0x81c90
   106a2:	3a20d0ef          	jal	0x1da44
   106a6:	0554f363          	bgeu	s1,s5,0x106ec
   106aa:	5a7d                	li	s4,-1
   106ac:	020a5a13          	srli	s4,s4,0x20
   106b0:	03a00c93          	li	s9,58
   106b4:	00078d17          	auipc	s10,0x78
   106b8:	fa4d0d13          	addi	s10,s10,-92 # 0x88658
   106bc:	a819                	j	0x106d2
   106be:	689c                	ld	a5,16(s1)
   106c0:	000d3503          	ld	a0,0(s10)
   106c4:	4581                	li	a1,0
   106c6:	04e1                	addi	s1,s1,24
   106c8:	9782                	jalr	a5
   106ca:	00adb023          	sd	a0,0(s11)
   106ce:	0154ff63          	bgeu	s1,s5,0x106ec
   106d2:	6498                	ld	a4,8(s1)
   106d4:	0004bd83          	ld	s11,0(s1)
   106d8:	01477733          	and	a4,a4,s4
   106dc:	ff9701e3          	beq	a4,s9,0x106be
   106e0:	00042517          	auipc	a0,0x42
   106e4:	35850513          	addi	a0,a0,856 # 0x52a38
   106e8:	3f7000ef          	jal	0x112de
   106ec:	226000ef          	jal	0x10912
   106f0:	00071a17          	auipc	s4,0x71
   106f4:	020a0a13          	addi	s4,s4,32 # 0x81710
   106f8:	000a3783          	ld	a5,0(s4)
   106fc:	0006f497          	auipc	s1,0x6f
   10700:	67448493          	addi	s1,s1,1652 # 0x7fd70
   10704:	00071817          	auipc	a6,0x71
   10708:	6ac83803          	ld	a6,1708(a6) # 0x81db0
   1070c:	0017c883          	lbu	a7,1(a5)
   10710:	0007c703          	lbu	a4,0(a5)
   10714:	0027c503          	lbu	a0,2(a5)
   10718:	0037c583          	lbu	a1,3(a5)
   1071c:	0047c603          	lbu	a2,4(a5)
   10720:	08a2                	slli	a7,a7,0x8
   10722:	0057c683          	lbu	a3,5(a5)
   10726:	00e8e8b3          	or	a7,a7,a4
   1072a:	0542                	slli	a0,a0,0x10
   1072c:	0067c703          	lbu	a4,6(a5)
   10730:	01156533          	or	a0,a0,a7
   10734:	05e2                	slli	a1,a1,0x18
   10736:	0077c783          	lbu	a5,7(a5)
   1073a:	8dc9                	or	a1,a1,a0
   1073c:	1602                	slli	a2,a2,0x20
   1073e:	8e4d                	or	a2,a2,a1
   10740:	16a2                	slli	a3,a3,0x28
   10742:	8ed1                	or	a3,a3,a2
   10744:	1742                	slli	a4,a4,0x30
   10746:	8f55                	or	a4,a4,a3
   10748:	17e2                	slli	a5,a5,0x38
   1074a:	8fd9                	or	a5,a5,a4
   1074c:	f007f793          	andi	a5,a5,-256
   10750:	e09c                	sd	a5,0(s1)
   10752:	00080363          	beqz	a6,0x10758
   10756:	9802                	jalr	a6
   10758:	000a3783          	ld	a5,0(s4)
   1075c:	0087c303          	lbu	t1,8(a5)
   10760:	0097c883          	lbu	a7,9(a5)
   10764:	00a7c803          	lbu	a6,10(a5)
   10768:	00b7c503          	lbu	a0,11(a5)
   1076c:	00c7c583          	lbu	a1,12(a5)
   10770:	00d7c603          	lbu	a2,13(a5)
   10774:	00e7c683          	lbu	a3,14(a5)
   10778:	00f7c703          	lbu	a4,15(a5)
   1077c:	f8640423          	sb	t1,-120(s0)
   10780:	f91404a3          	sb	a7,-119(s0)
   10784:	f9040523          	sb	a6,-118(s0)
   10788:	f8a405a3          	sb	a0,-117(s0)
   1078c:	f8b40623          	sb	a1,-116(s0)
   10790:	f8c406a3          	sb	a2,-115(s0)
   10794:	f8d40723          	sb	a3,-114(s0)
   10798:	f8e407a3          	sb	a4,-113(s0)
   1079c:	f8843783          	ld	a5,-120(s0)
   107a0:	e49c                	sd	a5,8(s1)
   107a2:	000b8763          	beqz	s7,0x107b0
   107a6:	4601                	li	a2,0
   107a8:	4581                	li	a1,0
   107aa:	855e                	mv	a0,s7
   107ac:	5ee000ef          	jal	0x10d9a
   107b0:	4505                	li	a0,1
   107b2:	5f70d0ef          	jal	0x1e5a8
   107b6:	000b3603          	ld	a2,0(s6)
   107ba:	85ce                	mv	a1,s3
   107bc:	854a                	mv	a0,s2
   107be:	6af0d0ef          	jal	0x1e66c
   107c2:	4601                	li	a2,0
   107c4:	4581                	li	a1,0
   107c6:	00000517          	auipc	a0,0x0
   107ca:	db650513          	addi	a0,a0,-586 # 0x1057c
   107ce:	5cc000ef          	jal	0x10d9a
   107d2:	00073797          	auipc	a5,0x73
   107d6:	cf67a783          	lw	a5,-778(a5) # 0x834c8
   107da:	efa5                	bnez	a5,0x10852
   107dc:	0006e717          	auipc	a4,0x6e
   107e0:	bc470713          	addi	a4,a4,-1084 # 0x7e3a0
   107e4:	0006e497          	auipc	s1,0x6e
   107e8:	bb448493          	addi	s1,s1,-1100 # 0x7e398
   107ec:	409707b3          	sub	a5,a4,s1
   107f0:	000b3a83          	ld	s5,0(s6)
   107f4:	4037db13          	srai	s6,a5,0x3
   107f8:	00970c63          	beq	a4,s1,0x10810
   107fc:	4a01                	li	s4,0
   107fe:	609c                	ld	a5,0(s1)
   10800:	8656                	mv	a2,s5
   10802:	85ce                	mv	a1,s3
   10804:	854a                	mv	a0,s2
   10806:	0a05                	addi	s4,s4,1
   10808:	9782                	jalr	a5
   1080a:	04a1                	addi	s1,s1,8
   1080c:	ff6a69e3          	bltu	s4,s6,0x107fe
   10810:	0006e797          	auipc	a5,0x6e
   10814:	b9878793          	addi	a5,a5,-1128 # 0x7e3a8
   10818:	0006e497          	auipc	s1,0x6e
   1081c:	b8848493          	addi	s1,s1,-1144 # 0x7e3a0
   10820:	40978b33          	sub	s6,a5,s1
   10824:	403b5b13          	srai	s6,s6,0x3
   10828:	00978c63          	beq	a5,s1,0x10840
   1082c:	4a01                	li	s4,0
   1082e:	609c                	ld	a5,0(s1)
   10830:	8656                	mv	a2,s5
   10832:	85ce                	mv	a1,s3
   10834:	854a                	mv	a0,s2
   10836:	0a05                	addi	s4,s4,1
   10838:	9782                	jalr	a5
   1083a:	04a1                	addi	s1,s1,8
   1083c:	ff6a69e3          	bltu	s4,s6,0x1082e
   10840:	4581                	li	a1,0
   10842:	4501                	li	a0,0
   10844:	5620c0ef          	jal	0x1cda6
   10848:	864e                	mv	a2,s3
   1084a:	85ca                	mv	a1,s2
   1084c:	8562                	mv	a0,s8
   1084e:	d71ff0ef          	jal	0x105be
   10852:	094000ef          	jal	0x108e6
   10856:	b759                	j	0x107dc
   10858:	7171                	addi	sp,sp,-176
   1085a:	f122                	sd	s0,160(sp)
   1085c:	ed26                	sd	s1,152(sp)
   1085e:	e94a                	sd	s2,144(sp)
   10860:	f506                	sd	ra,168(sp)
   10862:	1900                	addi	s0,sp,176
   10864:	84ae                	mv	s1,a1
   10866:	4585                	li	a1,1
   10868:	892a                	mv	s2,a0
   1086a:	5360b0ef          	jal	0x1bda0
   1086e:	57fd                	li	a5,-1
   10870:	00f50863          	beq	a0,a5,0x10880
   10874:	70aa                	ld	ra,168(sp)
   10876:	740a                	ld	s0,160(sp)
   10878:	64ea                	ld	s1,152(sp)
   1087a:	694a                	ld	s2,144(sp)
   1087c:	614d                	addi	sp,sp,176
   1087e:	8082                	ret
   10880:	00071797          	auipc	a5,0x71
   10884:	5507b783          	ld	a5,1360(a5) # 0x81dd0
   10888:	4725                	li	a4,9
   1088a:	9792                	add	a5,a5,tp
   1088c:	439c                	lw	a5,0(a5)
   1088e:	fee793e3          	bne	a5,a4,0x10874
   10892:	e54e                	sd	s3,136(sp)
   10894:	000207b7          	lui	a5,0x20
   10898:	10300993          	li	s3,259
   1089c:	00042517          	auipc	a0,0x42
   108a0:	1dc50513          	addi	a0,a0,476 # 0x52a78
   108a4:	00f48863          	beq	s1,a5,0x108b4
   108a8:	10700993          	li	s3,263
   108ac:	00042517          	auipc	a0,0x42
   108b0:	1bc50513          	addi	a0,a0,444 # 0x52a68
   108b4:	4601                	li	a2,0
   108b6:	85a6                	mv	a1,s1
   108b8:	6280b0ef          	jal	0x1bee0
   108bc:	02a91463          	bne	s2,a0,0x108e4
   108c0:	f5040593          	addi	a1,s0,-176
   108c4:	2320b0ef          	jal	0x1baf6
   108c8:	ed11                	bnez	a0,0x108e4
   108ca:	f6042783          	lw	a5,-160(s0)
   108ce:	66bd                	lui	a3,0xf
   108d0:	6709                	lui	a4,0x2
   108d2:	8ff5                	and	a5,a5,a3
   108d4:	00e79863          	bne	a5,a4,0x108e4
   108d8:	f7043783          	ld	a5,-144(s0)
   108dc:	01379463          	bne	a5,s3,0x108e4
   108e0:	69aa                	ld	s3,136(sp)
   108e2:	bf49                	j	0x10874
   108e4:	9002                	ebreak
   108e6:	1141                	addi	sp,sp,-16
   108e8:	e406                	sd	ra,8(sp)
   108ea:	e022                	sd	s0,0(sp)
   108ec:	000205b7          	lui	a1,0x20
   108f0:	0800                	addi	s0,sp,16
   108f2:	0585                	addi	a1,a1,1 # 0x20001
   108f4:	4501                	li	a0,0
   108f6:	f63ff0ef          	jal	0x10858
   108fa:	000205b7          	lui	a1,0x20
   108fe:	4505                	li	a0,1
   10900:	f59ff0ef          	jal	0x10858
   10904:	6402                	ld	s0,0(sp)
   10906:	60a2                	ld	ra,8(sp)
   10908:	000205b7          	lui	a1,0x20
   1090c:	4509                	li	a0,2
   1090e:	0141                	addi	sp,sp,16
   10910:	b7a1                	j	0x10858
   10912:	7175                	addi	sp,sp,-144
   10914:	e122                	sd	s0,128(sp)
   10916:	f46e                	sd	s11,40(sp)
   10918:	e506                	sd	ra,136(sp)
   1091a:	fca6                	sd	s1,120(sp)
   1091c:	f8ca                	sd	s2,112(sp)
   1091e:	f4ce                	sd	s3,104(sp)
   10920:	f0d2                	sd	s4,96(sp)
   10922:	ecd6                	sd	s5,88(sp)
   10924:	e8da                	sd	s6,80(sp)
   10926:	e4de                	sd	s7,72(sp)
   10928:	e0e2                	sd	s8,64(sp)
   1092a:	fc66                	sd	s9,56(sp)
   1092c:	f86a                	sd	s10,48(sp)
   1092e:	0900                	addi	s0,sp,144
   10930:	00071797          	auipc	a5,0x71
   10934:	6b87b783          	ld	a5,1720(a5) # 0x81fe8
   10938:	0007bd83          	ld	s11,0(a5)
   1093c:	5050c0ef          	jal	0x1d640
   10940:	00071797          	auipc	a5,0x71
   10944:	6007b783          	ld	a5,1536(a5) # 0x81f40
   10948:	6398                	ld	a4,0(a5)
   1094a:	00071797          	auipc	a5,0x71
   1094e:	4de7b783          	ld	a5,1246(a5) # 0x81e28
   10952:	639c                	ld	a5,0(a5)
   10954:	00371693          	slli	a3,a4,0x3
   10958:	8e99                	sub	a3,a3,a4
   1095a:	068e                	slli	a3,a3,0x3
   1095c:	96be                	add	a3,a3,a5
   1095e:	14d7f663          	bgeu	a5,a3,0x10aaa
   10962:	461d                	li	a2,7
   10964:	a029                	j	0x1096e
   10966:	03878793          	addi	a5,a5,56
   1096a:	14d7f063          	bgeu	a5,a3,0x10aaa
   1096e:	4398                	lw	a4,0(a5)
   10970:	fec71be3          	bne	a4,a2,0x10966
   10974:	000dba83          	ld	s5,0(s11)
   10978:	6b90                	ld	a2,16(a5)
   1097a:	0307bd03          	ld	s10,48(a5)
   1097e:	02000713          	li	a4,32
   10982:	0287bb03          	ld	s6,40(a5)
   10986:	0207bb83          	ld	s7,32(a5)
   1098a:	9ab2                	add	s5,s5,a2
   1098c:	8a6a                	mv	s4,s10
   1098e:	10ed6863          	bltu	s10,a4,0x10a9e
   10992:	89ea                	mv	s3,s10
   10994:	100d0363          	beqz	s10,0x10a9a
   10998:	fffa0793          	addi	a5,s4,-1
   1099c:	f8f43423          	sd	a5,-120(s0)
   109a0:	4501                	li	a0,0
   109a2:	414007b3          	neg	a5,s4
   109a6:	f8f43023          	sd	a5,-128(s0)
   109aa:	6d20c0ef          	jal	0x1d07c
   109ae:	140d0563          	beqz	s10,0x10af8
   109b2:	fffd0913          	addi	s2,s10,-1
   109b6:	03a95833          	divu	a6,s2,s10
   109ba:	995a                	add	s2,s2,s6
   109bc:	03380c33          	mul	s8,a6,s3
   109c0:	f7843c23          	sd	s8,-136(s0)
   109c4:	84018c93          	addi	s9,gp,-1984
   109c8:	000cb503          	ld	a0,0(s9)
   109cc:	76050513          	addi	a0,a0,1888
   109d0:	955a                	add	a0,a0,s6
   109d2:	9552                	add	a0,a0,s4
   109d4:	9562                	add	a0,a0,s8
   109d6:	30a0d0ef          	jal	0x1dce0
   109da:	84aa                	mv	s1,a0
   109dc:	0e050c63          	beqz	a0,0x10ad4
   109e0:	f8843783          	ld	a5,-120(s0)
   109e4:	76048493          	addi	s1,s1,1888
   109e8:	865e                	mv	a2,s7
   109ea:	94be                	add	s1,s1,a5
   109ec:	f8043783          	ld	a5,-128(s0)
   109f0:	85d6                	mv	a1,s5
   109f2:	8cfd                	and	s1,s1,a5
   109f4:	f7843783          	ld	a5,-136(s0)
   109f8:	01848533          	add	a0,s1,s8
   109fc:	02acb423          	sd	a0,40(s9)
   10a00:	44fdb823          	sd	a5,1104(s11)
   10a04:	03e00793          	li	a5,62
   10a08:	00fcb423          	sd	a5,8(s9)
   10a0c:	8601b823          	sd	zero,-1936(gp)
   10a10:	4ed090ef          	jal	0x1a6fc
   10a14:	85818793          	addi	a5,gp,-1960
   10a18:	fef4b823          	sd	a5,-16(s1)
   10a1c:	8226                	mv	tp,s1
   10a1e:	4530c0ef          	jal	0x1d670
   10a22:	033979b3          	remu	s3,s2,s3
   10a26:	000cb783          	ld	a5,0(s9)
   10a2a:	60aa                	ld	ra,136(sp)
   10a2c:	640a                	ld	s0,128(sp)
   10a2e:	07fd                	addi	a5,a5,31
   10a30:	04000693          	li	a3,64
   10a34:	00074617          	auipc	a2,0x74
   10a38:	ea460613          	addi	a2,a2,-348 # 0x848d8
   10a3c:	4585                	li	a1,1
   10a3e:	40dcb423          	sd	a3,1032(s9)
   10a42:	c4818693          	addi	a3,gp,-952
   10a46:	45adb023          	sd	s10,1088(s11)
   10a4a:	436dbc23          	sd	s6,1080(s11)
   10a4e:	435db423          	sd	s5,1064(s11)
   10a52:	437db823          	sd	s7,1072(s11)
   10a56:	43bcb823          	sd	s11,1072(s9)
   10a5a:	44bdbc23          	sd	a1,1112(s11)
   10a5e:	83463c23          	sd	s4,-1992(a2)
   10a62:	80b63c23          	sd	a1,-2024(a2)
   10a66:	82d63023          	sd	a3,-2016(a2)
   10a6a:	84b63023          	sd	a1,-1984(a2)
   10a6e:	74e6                	ld	s1,120(sp)
   10a70:	7a06                	ld	s4,96(sp)
   10a72:	6ae6                	ld	s5,88(sp)
   10a74:	6b46                	ld	s6,80(sp)
   10a76:	6ba6                	ld	s7,72(sp)
   10a78:	7ce2                	ld	s9,56(sp)
   10a7a:	7d42                	ld	s10,48(sp)
   10a7c:	7da2                	ld	s11,40(sp)
   10a7e:	41390933          	sub	s2,s2,s3
   10a82:	9962                	add	s2,s2,s8
   10a84:	97ca                	add	a5,a5,s2
   10a86:	9b81                	andi	a5,a5,-32
   10a88:	83263823          	sd	s2,-2000(a2)
   10a8c:	82f63423          	sd	a5,-2008(a2)
   10a90:	7946                	ld	s2,112(sp)
   10a92:	79a6                	ld	s3,104(sp)
   10a94:	6c06                	ld	s8,64(sp)
   10a96:	6149                	addi	sp,sp,144
   10a98:	8082                	ret
   10a9a:	4985                	li	s3,1
   10a9c:	bdf5                	j	0x10998
   10a9e:	02000a13          	li	s4,32
   10aa2:	89ea                	mv	s3,s10
   10aa4:	ee0d1ae3          	bnez	s10,0x10998
   10aa8:	bfcd                	j	0x10a9a
   10aaa:	4501                	li	a0,0
   10aac:	5d00c0ef          	jal	0x1d07c
   10ab0:	47fd                	li	a5,31
   10ab2:	f8f43423          	sd	a5,-120(s0)
   10ab6:	5781                	li	a5,-32
   10ab8:	4901                	li	s2,0
   10aba:	f6043c23          	sd	zero,-136(s0)
   10abe:	f8f43023          	sd	a5,-128(s0)
   10ac2:	4c01                	li	s8,0
   10ac4:	4985                	li	s3,1
   10ac6:	02000a13          	li	s4,32
   10aca:	4d01                	li	s10,0
   10acc:	4a81                	li	s5,0
   10ace:	4b81                	li	s7,0
   10ad0:	4b01                	li	s6,0
   10ad2:	bdcd                	j	0x109c4
   10ad4:	04000893          	li	a7,64
   10ad8:	4509                	li	a0,2
   10ada:	00042597          	auipc	a1,0x42
   10ade:	fae58593          	addi	a1,a1,-82 # 0x52a88
   10ae2:	02d00613          	li	a2,45
   10ae6:	00000073          	ecall
   10aea:	05e00893          	li	a7,94
   10aee:	07f00513          	li	a0,127
   10af2:	00000073          	ecall
   10af6:	b5ed                	j	0x109e0
   10af8:	47fd                	li	a5,31
   10afa:	f8f43423          	sd	a5,-120(s0)
   10afe:	5781                	li	a5,-32
   10b00:	895a                	mv	s2,s6
   10b02:	4c01                	li	s8,0
   10b04:	f6043c23          	sd	zero,-136(s0)
   10b08:	f8f43023          	sd	a5,-128(s0)
   10b0c:	4985                	li	s3,1
   10b0e:	02000a13          	li	s4,32
   10b12:	bd4d                	j	0x109c4
   10b14:	1141                	addi	sp,sp,-16
   10b16:	e422                	sd	s0,8(sp)
   10b18:	0800                	addi	s0,sp,16
   10b1a:	ff023703          	ld	a4,-16(tp) # 0xfffffffffffffff0
   10b1e:	651c                	ld	a5,8(a0)
   10b20:	6422                	ld	s0,8(sp)
   10b22:	6b08                	ld	a0,16(a4)
   10b24:	6705                	lui	a4,0x1
   10b26:	80070713          	addi	a4,a4,-2048 # 0x800
   10b2a:	97ba                	add	a5,a5,a4
   10b2c:	953e                	add	a0,a0,a5
   10b2e:	0141                	addi	sp,sp,16
   10b30:	8082                	ret
   10b32:	0000                	unimp
   10b34:	4581                	li	a1,0
   10b36:	a019                	j	0x10b3c
   10b38:	4585                	li	a1,1
   10b3a:	0001                	nop
   10b3c:	00153023          	sd	ra,0(a0)
   10b40:	e500                	sd	s0,8(a0)
   10b42:	e904                	sd	s1,16(a0)
   10b44:	01253c23          	sd	s2,24(a0)
   10b48:	03353023          	sd	s3,32(a0)
   10b4c:	03453423          	sd	s4,40(a0)
   10b50:	03553823          	sd	s5,48(a0)
   10b54:	03653c23          	sd	s6,56(a0)
   10b58:	05753023          	sd	s7,64(a0)
   10b5c:	05853423          	sd	s8,72(a0)
   10b60:	05953823          	sd	s9,80(a0)
   10b64:	05a53c23          	sd	s10,88(a0)
   10b68:	07b53023          	sd	s11,96(a0)
   10b6c:	06253423          	sd	sp,104(a0)
   10b70:	b920                	fsd	fs0,112(a0)
   10b72:	bd24                	fsd	fs1,120(a0)
   10b74:	09253027          	fsd	fs2,128(a0)
   10b78:	09353427          	fsd	fs3,136(a0)
   10b7c:	09453827          	fsd	fs4,144(a0)
   10b80:	09553c27          	fsd	fs5,152(a0)
   10b84:	0b653027          	fsd	fs6,160(a0)
   10b88:	0b753427          	fsd	fs7,168(a0)
   10b8c:	0b853827          	fsd	fs8,176(a0)
   10b90:	0b953c27          	fsd	fs9,184(a0)
   10b94:	0da53027          	fsd	fs10,192(a0)
   10b98:	0db53427          	fsd	fs11,200(a0)
   10b9c:	0040006f          	j	0x10ba0
   10ba0:	1101                	addi	sp,sp,-32
   10ba2:	e822                	sd	s0,16(sp)
   10ba4:	e426                	sd	s1,8(sp)
   10ba6:	ec06                	sd	ra,24(sp)
   10ba8:	1000                	addi	s0,sp,32
   10baa:	84aa                	mv	s1,a0
   10bac:	e989                	bnez	a1,0x10bbe
   10bae:	60e2                	ld	ra,24(sp)
   10bb0:	6442                	ld	s0,16(sp)
   10bb2:	0cb4a823          	sw	a1,208(s1)
   10bb6:	4501                	li	a0,0
   10bb8:	64a2                	ld	s1,8(sp)
   10bba:	6105                	addi	sp,sp,32
   10bbc:	8082                	ret
   10bbe:	0d850613          	addi	a2,a0,216
   10bc2:	4581                	li	a1,0
   10bc4:	4501                	li	a0,0
   10bc6:	018000ef          	jal	0x10bde
   10bca:	60e2                	ld	ra,24(sp)
   10bcc:	6442                	ld	s0,16(sp)
   10bce:	00153593          	seqz	a1,a0
   10bd2:	0cb4a823          	sw	a1,208(s1)
   10bd6:	4501                	li	a0,0
   10bd8:	64a2                	ld	s1,8(sp)
   10bda:	6105                	addi	sp,sp,32
   10bdc:	8082                	ret
   10bde:	1141                	addi	sp,sp,-16
   10be0:	e022                	sd	s0,0(sp)
   10be2:	e406                	sd	ra,8(sp)
   10be4:	0800                	addi	s0,sp,16
   10be6:	1c1040ef          	jal	0x155a6
   10bea:	e509                	bnez	a0,0x10bf4
   10bec:	60a2                	ld	ra,8(sp)
   10bee:	6402                	ld	s0,0(sp)
   10bf0:	0141                	addi	sp,sp,16
   10bf2:	8082                	ret
   10bf4:	00071797          	auipc	a5,0x71
   10bf8:	1dc7b783          	ld	a5,476(a5) # 0x81dd0
   10bfc:	9792                	add	a5,a5,tp
   10bfe:	c388                	sw	a0,0(a5)
   10c00:	557d                	li	a0,-1
   10c02:	b7ed                	j	0x10bec
   10c04:	4c01c783          	lbu	a5,1216(gp)
   10c08:	e3f1                	bnez	a5,0x10ccc
   10c0a:	1101                	addi	sp,sp,-32
   10c0c:	e822                	sd	s0,16(sp)
   10c0e:	e426                	sd	s1,8(sp)
   10c10:	e04a                	sd	s2,0(sp)
   10c12:	ec06                	sd	ra,24(sp)
   10c14:	1000                	addi	s0,sp,32
   10c16:	00053903          	ld	s2,0(a0)
   10c1a:	84aa                	mv	s1,a0
   10c1c:	08090863          	beqz	s2,0x10cac
   10c20:	85ca                	mv	a1,s2
   10c22:	4801                	li	a6,0
   10c24:	6598                	ld	a4,8(a1)
   10c26:	00571793          	slli	a5,a4,0x5
   10c2a:	97ae                	add	a5,a5,a1
   10c2c:	cb09                	beqz	a4,0x10c3e
   10c2e:	ff07b683          	ld	a3,-16(a5)
   10c32:	fff70613          	addi	a2,a4,-1
   10c36:	1781                	addi	a5,a5,-32
   10c38:	ea91                	bnez	a3,0x10c4c
   10c3a:	8732                	mv	a4,a2
   10c3c:	fb6d                	bnez	a4,0x10c2e
   10c3e:	619c                	ld	a5,0(a1)
   10c40:	0005b423          	sd	zero,8(a1)
   10c44:	882e                	mv	a6,a1
   10c46:	c7b9                	beqz	a5,0x10c94
   10c48:	85be                	mv	a1,a5
   10c4a:	bfe9                	j	0x10c24
   10c4c:	02000793          	li	a5,32
   10c50:	02f70563          	beq	a4,a5,0x10c7a
   10c54:	00571513          	slli	a0,a4,0x5
   10c58:	0541                	addi	a0,a0,16
   10c5a:	0705                	addi	a4,a4,1
   10c5c:	952e                	add	a0,a0,a1
   10c5e:	e598                	sd	a4,8(a1)
   10c60:	0a018713          	addi	a4,gp,160
   10c64:	631c                	ld	a5,0(a4)
   10c66:	60e2                	ld	ra,24(sp)
   10c68:	6442                	ld	s0,16(sp)
   10c6a:	4685                	li	a3,1
   10c6c:	e114                	sd	a3,0(a0)
   10c6e:	0785                	addi	a5,a5,1
   10c70:	e31c                	sd	a5,0(a4)
   10c72:	64a2                	ld	s1,8(sp)
   10c74:	6902                	ld	s2,0(sp)
   10c76:	6105                	addi	sp,sp,32
   10c78:	8082                	ret
   10c7a:	85c2                	mv	a1,a6
   10c7c:	00081c63          	bnez	a6,0x10c94
   10c80:	41000593          	li	a1,1040
   10c84:	4505                	li	a0,1
   10c86:	789080ef          	jal	0x19c0e
   10c8a:	85aa                	mv	a1,a0
   10c8c:	c909                	beqz	a0,0x10c9e
   10c8e:	01253023          	sd	s2,0(a0)
   10c92:	e088                	sd	a0,0(s1)
   10c94:	4785                	li	a5,1
   10c96:	01058513          	addi	a0,a1,16
   10c9a:	e59c                	sd	a5,8(a1)
   10c9c:	b7d1                	j	0x10c60
   10c9e:	60e2                	ld	ra,24(sp)
   10ca0:	6442                	ld	s0,16(sp)
   10ca2:	64a2                	ld	s1,8(sp)
   10ca4:	6902                	ld	s2,0(sp)
   10ca6:	4501                	li	a0,0
   10ca8:	6105                	addi	sp,sp,32
   10caa:	8082                	ret
   10cac:	00042697          	auipc	a3,0x42
   10cb0:	e3c68693          	addi	a3,a3,-452 # 0x52ae8
   10cb4:	06e00613          	li	a2,110
   10cb8:	00042597          	auipc	a1,0x42
   10cbc:	e0058593          	addi	a1,a1,-512 # 0x52ab8
   10cc0:	00042517          	auipc	a0,0x42
   10cc4:	e0850513          	addi	a0,a0,-504 # 0x52ac8
   10cc8:	7bb150ef          	jal	0x26c82
   10ccc:	4501                	li	a0,0
   10cce:	8082                	ret
   10cd0:	7139                	addi	sp,sp,-64
   10cd2:	f822                	sd	s0,48(sp)
   10cd4:	fc06                	sd	ra,56(sp)
   10cd6:	f426                	sd	s1,40(sp)
   10cd8:	f04a                	sd	s2,32(sp)
   10cda:	ec4e                	sd	s3,24(sp)
   10cdc:	e852                	sd	s4,16(sp)
   10cde:	0080                	addi	s0,sp,64
   10ce0:	cd49                	beqz	a0,0x10d7a
   10ce2:	0a018493          	addi	s1,gp,160
   10ce6:	8a2e                	mv	s4,a1
   10ce8:	892a                	mv	s2,a0
   10cea:	89b2                	mv	s3,a2
   10cec:	4705                	li	a4,1
   10cee:	00848593          	addi	a1,s1,8
   10cf2:	1405a7af          	lr.w.aq	a5,(a1)
   10cf6:	e781                	bnez	a5,0x10cfe
   10cf8:	18e5a62f          	sc.w	a2,a4,(a1)
   10cfc:	fa7d                	bnez	a2,0x10cf2
   10cfe:	2781                	sext.w	a5,a5
   10d00:	e7a1                	bnez	a5,0x10d48
   10d02:	8536                	mv	a0,a3
   10d04:	f01ff0ef          	jal	0x10c04
   10d08:	c921                	beqz	a0,0x10d58
   10d0a:	4791                	li	a5,4
   10d0c:	e11c                	sd	a5,0(a0)
   10d0e:	01253423          	sd	s2,8(a0)
   10d12:	01453823          	sd	s4,16(a0)
   10d16:	01353c23          	sd	s3,24(a0)
   10d1a:	4781                	li	a5,0
   10d1c:	00848713          	addi	a4,s1,8
   10d20:	0af727af          	amoswap.w.rl	a5,a5,(a4)
   10d24:	4705                	li	a4,1
   10d26:	2781                	sext.w	a5,a5
   10d28:	00f74b63          	blt	a4,a5,0x10d3e
   10d2c:	4501                	li	a0,0
   10d2e:	70e2                	ld	ra,56(sp)
   10d30:	7442                	ld	s0,48(sp)
   10d32:	74a2                	ld	s1,40(sp)
   10d34:	7902                	ld	s2,32(sp)
   10d36:	69e2                	ld	s3,24(sp)
   10d38:	6a42                	ld	s4,16(sp)
   10d3a:	6121                	addi	sp,sp,64
   10d3c:	8082                	ret
   10d3e:	0a818513          	addi	a0,gp,168
   10d42:	74c040ef          	jal	0x1548e
   10d46:	b7dd                	j	0x10d2c
   10d48:	852e                	mv	a0,a1
   10d4a:	fcd43423          	sd	a3,-56(s0)
   10d4e:	69a040ef          	jal	0x153e8
   10d52:	fc843683          	ld	a3,-56(s0)
   10d56:	b775                	j	0x10d02
   10d58:	00848793          	addi	a5,s1,8
   10d5c:	0aa7a52f          	amoswap.w.rl	a0,a0,(a5)
   10d60:	4705                	li	a4,1
   10d62:	0005079b          	sext.w	a5,a0
   10d66:	00f74463          	blt	a4,a5,0x10d6e
   10d6a:	557d                	li	a0,-1
   10d6c:	b7c9                	j	0x10d2e
   10d6e:	0a818513          	addi	a0,gp,168
   10d72:	71c040ef          	jal	0x1548e
   10d76:	557d                	li	a0,-1
   10d78:	bf5d                	j	0x10d2e
   10d7a:	00042697          	auipc	a3,0x42
   10d7e:	d7e68693          	addi	a3,a3,-642 # 0x52af8
   10d82:	02900613          	li	a2,41
   10d86:	00042597          	auipc	a1,0x42
   10d8a:	d3258593          	addi	a1,a1,-718 # 0x52ab8
   10d8e:	00042517          	auipc	a0,0x42
   10d92:	d4a50513          	addi	a0,a0,-694 # 0x52ad8
   10d96:	6ed150ef          	jal	0x26c82
   10d9a:	1141                	addi	sp,sp,-16
   10d9c:	e422                	sd	s0,8(sp)
   10d9e:	0800                	addi	s0,sp,16
   10da0:	6422                	ld	s0,8(sp)
   10da2:	00071697          	auipc	a3,0x71
   10da6:	25e68693          	addi	a3,a3,606 # 0x82000
   10daa:	0141                	addi	sp,sp,16
   10dac:	b715                	j	0x10cd0
   10dae:	7175                	addi	sp,sp,-144
   10db0:	e122                	sd	s0,128(sp)
   10db2:	f86a                	sd	s10,48(sp)
   10db4:	0900                	addi	s0,sp,144
   10db6:	e506                	sd	ra,136(sp)
   10db8:	fca6                	sd	s1,120(sp)
   10dba:	f8ca                	sd	s2,112(sp)
   10dbc:	f4ce                	sd	s3,104(sp)
   10dbe:	f0d2                	sd	s4,96(sp)
   10dc0:	ecd6                	sd	s5,88(sp)
   10dc2:	e8da                	sd	s6,80(sp)
   10dc4:	e4de                	sd	s7,72(sp)
   10dc6:	e0e2                	sd	s8,64(sp)
   10dc8:	fc66                	sd	s9,56(sp)
   10dca:	f46e                	sd	s11,40(sp)
   10dcc:	f8b43423          	sd	a1,-120(s0)
   10dd0:	f6c43823          	sd	a2,-144(s0)
   10dd4:	8d2a                	mv	s10,a0
   10dd6:	c699                	beqz	a3,0x10de4
   10dd8:	00071797          	auipc	a5,0x71
   10ddc:	1c87b783          	ld	a5,456(a5) # 0x81fa0
   10de0:	c391                	beqz	a5,0x10de4
   10de2:	9782                	jalr	a5
   10de4:	00071497          	auipc	s1,0x71
   10de8:	f0c4b483          	ld	s1,-244(s1) # 0x81cf0
   10dec:	4705                	li	a4,1
   10dee:	1404a7af          	lr.w.aq	a5,(s1)
   10df2:	e781                	bnez	a5,0x10dfa
   10df4:	18e4a6af          	sc.w	a3,a4,(s1)
   10df8:	fafd                	bnez	a3,0x10dee
   10dfa:	2781                	sext.w	a5,a5
   10dfc:	18079763          	bnez	a5,0x10f8a
   10e00:	f8843783          	ld	a5,-120(s0)
   10e04:	0007bd83          	ld	s11,0(a5)
   10e08:	060d8963          	beqz	s11,0x10e7a
   10e0c:	0a018913          	addi	s2,gp,160
   10e10:	4a0d                	li	s4,3
   10e12:	4c01                	li	s8,0
   10e14:	4b85                	li	s7,1
   10e16:	4b05                	li	s6,1
   10e18:	4a91                	li	s5,4
   10e1a:	4c89                	li	s9,2
   10e1c:	008db783          	ld	a5,8(s11)
   10e20:	c7ed                	beqz	a5,0x10f0a
   10e22:	17fd                	addi	a5,a5,-1
   10e24:	00579713          	slli	a4,a5,0x5
   10e28:	00fdb423          	sd	a5,8(s11)
   10e2c:	00ed87b3          	add	a5,s11,a4
   10e30:	6b98                	ld	a4,16(a5)
   10e32:	00093983          	ld	s3,0(s2)
   10e36:	0b470363          	beq	a4,s4,0x10edc
   10e3a:	07570563          	beq	a4,s5,0x10ea4
   10e3e:	fd971fe3          	bne	a4,s9,0x10e1c
   10e42:	6f98                	ld	a4,24(a5)
   10e44:	738c                	ld	a1,32(a5)
   10e46:	87e2                	mv	a5,s8
   10e48:	0af4a7af          	amoswap.w.rl	a5,a5,(s1)
   10e4c:	2781                	sext.w	a5,a5
   10e4e:	0efbc963          	blt	s7,a5,0x10f40
   10e52:	856a                	mv	a0,s10
   10e54:	9702                	jalr	a4
   10e56:	1404a7af          	lr.w.aq	a5,(s1)
   10e5a:	e781                	bnez	a5,0x10e62
   10e5c:	1964a72f          	sc.w	a4,s6,(s1)
   10e60:	fb7d                	bnez	a4,0x10e56
   10e62:	2781                	sext.w	a5,a5
   10e64:	e7ad                	bnez	a5,0x10ece
   10e66:	00093783          	ld	a5,0(s2)
   10e6a:	fb3789e3          	beq	a5,s3,0x10e1c
   10e6e:	f8843783          	ld	a5,-120(s0)
   10e72:	0007bd83          	ld	s11,0(a5)
   10e76:	fa0d91e3          	bnez	s11,0x10e18
   10e7a:	4705                	li	a4,1
   10e7c:	4ce18023          	sb	a4,1216(gp)
   10e80:	4781                	li	a5,0
   10e82:	0af4a7af          	amoswap.w.rl	a5,a5,(s1)
   10e86:	2781                	sext.w	a5,a5
   10e88:	0ef74a63          	blt	a4,a5,0x10f7c
   10e8c:	f7043783          	ld	a5,-144(s0)
   10e90:	c799                	beqz	a5,0x10e9e
   10e92:	00071797          	auipc	a5,0x71
   10e96:	efe7b783          	ld	a5,-258(a5) # 0x81d90
   10e9a:	c391                	beqz	a5,0x10e9e
   10e9c:	9782                	jalr	a5
   10e9e:	856a                	mv	a0,s10
   10ea0:	4310a0ef          	jal	0x1bad0
   10ea4:	6f98                	ld	a4,24(a5)
   10ea6:	7390                	ld	a2,32(a5)
   10ea8:	0007b823          	sd	zero,16(a5)
   10eac:	87e2                	mv	a5,s8
   10eae:	0af4a7af          	amoswap.w.rl	a5,a5,(s1)
   10eb2:	2781                	sext.w	a5,a5
   10eb4:	0afbc563          	blt	s7,a5,0x10f5e
   10eb8:	85ea                	mv	a1,s10
   10eba:	8532                	mv	a0,a2
   10ebc:	9702                	jalr	a4
   10ebe:	1404a7af          	lr.w.aq	a5,(s1)
   10ec2:	e781                	bnez	a5,0x10eca
   10ec4:	1964a72f          	sc.w	a4,s6,(s1)
   10ec8:	fb7d                	bnez	a4,0x10ebe
   10eca:	2781                	sext.w	a5,a5
   10ecc:	dfc9                	beqz	a5,0x10e66
   10ece:	00071517          	auipc	a0,0x71
   10ed2:	e2253503          	ld	a0,-478(a0) # 0x81cf0
   10ed6:	512040ef          	jal	0x153e8
   10eda:	b771                	j	0x10e66
   10edc:	6f98                	ld	a4,24(a5)
   10ede:	87e2                	mv	a5,s8
   10ee0:	0af4a7af          	amoswap.w.rl	a5,a5,(s1)
   10ee4:	2781                	sext.w	a5,a5
   10ee6:	04fbc263          	blt	s7,a5,0x10f2a
   10eea:	9702                	jalr	a4
   10eec:	1404a7af          	lr.w.aq	a5,(s1)
   10ef0:	e781                	bnez	a5,0x10ef8
   10ef2:	1964a72f          	sc.w	a4,s6,(s1)
   10ef6:	fb7d                	bnez	a4,0x10eec
   10ef8:	2781                	sext.w	a5,a5
   10efa:	d7b5                	beqz	a5,0x10e66
   10efc:	00071517          	auipc	a0,0x71
   10f00:	df453503          	ld	a0,-524(a0) # 0x81cf0
   10f04:	4e4040ef          	jal	0x153e8
   10f08:	bfb9                	j	0x10e66
   10f0a:	000db783          	ld	a5,0(s11)
   10f0e:	f8843703          	ld	a4,-120(s0)
   10f12:	e31c                	sd	a5,0(a4)
   10f14:	d3bd                	beqz	a5,0x10e7a
   10f16:	856e                	mv	a0,s11
   10f18:	58c080ef          	jal	0x194a4
   10f1c:	f8843783          	ld	a5,-120(s0)
   10f20:	0007bd83          	ld	s11,0(a5)
   10f24:	ee0d9ae3          	bnez	s11,0x10e18
   10f28:	bf89                	j	0x10e7a
   10f2a:	00071517          	auipc	a0,0x71
   10f2e:	dc653503          	ld	a0,-570(a0) # 0x81cf0
   10f32:	f8e43023          	sd	a4,-128(s0)
   10f36:	558040ef          	jal	0x1548e
   10f3a:	f8043703          	ld	a4,-128(s0)
   10f3e:	b775                	j	0x10eea
   10f40:	00071517          	auipc	a0,0x71
   10f44:	db053503          	ld	a0,-592(a0) # 0x81cf0
   10f48:	f6b43c23          	sd	a1,-136(s0)
   10f4c:	f8e43023          	sd	a4,-128(s0)
   10f50:	53e040ef          	jal	0x1548e
   10f54:	f7843583          	ld	a1,-136(s0)
   10f58:	f8043703          	ld	a4,-128(s0)
   10f5c:	bddd                	j	0x10e52
   10f5e:	00071517          	auipc	a0,0x71
   10f62:	d9253503          	ld	a0,-622(a0) # 0x81cf0
   10f66:	f6c43c23          	sd	a2,-136(s0)
   10f6a:	f8e43023          	sd	a4,-128(s0)
   10f6e:	520040ef          	jal	0x1548e
   10f72:	f7843603          	ld	a2,-136(s0)
   10f76:	f8043703          	ld	a4,-128(s0)
   10f7a:	bf3d                	j	0x10eb8
   10f7c:	00071517          	auipc	a0,0x71
   10f80:	d7453503          	ld	a0,-652(a0) # 0x81cf0
   10f84:	50a040ef          	jal	0x1548e
   10f88:	b711                	j	0x10e8c
   10f8a:	8526                	mv	a0,s1
   10f8c:	45c040ef          	jal	0x153e8
   10f90:	bd85                	j	0x10e00
   10f92:	1141                	addi	sp,sp,-16
   10f94:	e022                	sd	s0,0(sp)
   10f96:	e406                	sd	ra,8(sp)
   10f98:	0800                	addi	s0,sp,16
   10f9a:	4685                	li	a3,1
   10f9c:	4605                	li	a2,1
   10f9e:	00071597          	auipc	a1,0x71
   10fa2:	06258593          	addi	a1,a1,98 # 0x82000
   10fa6:	e09ff0ef          	jal	0x10dae
   10faa:	7139                	addi	sp,sp,-64
   10fac:	f822                	sd	s0,48(sp)
   10fae:	f426                	sd	s1,40(sp)
   10fb0:	f04a                	sd	s2,32(sp)
   10fb2:	ec4e                	sd	s3,24(sp)
   10fb4:	e852                	sd	s4,16(sp)
   10fb6:	fc06                	sd	ra,56(sp)
   10fb8:	e456                	sd	s5,8(sp)
   10fba:	0080                	addi	s0,sp,64
   10fbc:	00071a17          	auipc	s4,0x71
   10fc0:	c34a3a03          	ld	s4,-972(s4) # 0x81bf0
   10fc4:	89aa                	mv	s3,a0
   10fc6:	32f090ef          	jal	0x1aaf4
   10fca:	000a3903          	ld	s2,0(s4)
   10fce:	84aa                	mv	s1,a0
   10fd0:	00092783          	lw	a5,0(s2)
   10fd4:	03079713          	slli	a4,a5,0x30
   10fd8:	0a075163          	bgez	a4,0x1107a
   10fdc:	854a                	mv	a0,s2
   10fde:	0c052783          	lw	a5,192(a0)
   10fe2:	e7d9                	bnez	a5,0x11070
   10fe4:	57fd                	li	a5,-1
   10fe6:	0cf52023          	sw	a5,192(a0)
   10fea:	0d853a83          	ld	s5,216(a0)
   10fee:	6785                	lui	a5,0x1
   10ff0:	0006f717          	auipc	a4,0x6f
   10ff4:	d9070713          	addi	a4,a4,-624 # 0x7fd80
   10ff8:	40ea8733          	sub	a4,s5,a4
   10ffc:	92f78793          	addi	a5,a5,-1745 # 0x92f
   11000:	0ee7e463          	bltu	a5,a4,0x110e8
   11004:	038ab783          	ld	a5,56(s5)
   11008:	8626                	mv	a2,s1
   1100a:	85ce                	mv	a1,s3
   1100c:	9782                	jalr	a5
   1100e:	06a49463          	bne	s1,a0,0x11076
   11012:	000a3503          	ld	a0,0(s4)
   11016:	751c                	ld	a5,40(a0)
   11018:	7918                	ld	a4,48(a0)
   1101a:	0ce7fc63          	bgeu	a5,a4,0x110f2
   1101e:	00178713          	addi	a4,a5,1
   11022:	f518                	sd	a4,40(a0)
   11024:	4729                	li	a4,10
   11026:	00e78023          	sb	a4,0(a5)
   1102a:	800007b7          	lui	a5,0x80000
   1102e:	0485                	addi	s1,s1,1
   11030:	fff7c793          	not	a5,a5
   11034:	0697ee63          	bltu	a5,s1,0x110b0
   11038:	2481                	sext.w	s1,s1
   1103a:	00092783          	lw	a5,0(s2)
   1103e:	03079713          	slli	a4,a5,0x30
   11042:	00074d63          	bltz	a4,0x1105c
   11046:	08893503          	ld	a0,136(s2)
   1104a:	8a022703          	lw	a4,-1888(tp) # 0xfffffffffffff8a0
   1104e:	4154                	lw	a3,4(a0)
   11050:	e335                	bnez	a4,0x110b4
   11052:	e2b5                	bnez	a3,0x110b6
   11054:	00053423          	sd	zero,8(a0)
   11058:	00052023          	sw	zero,0(a0)
   1105c:	70e2                	ld	ra,56(sp)
   1105e:	7442                	ld	s0,48(sp)
   11060:	7902                	ld	s2,32(sp)
   11062:	69e2                	ld	s3,24(sp)
   11064:	6a42                	ld	s4,16(sp)
   11066:	6aa2                	ld	s5,8(sp)
   11068:	8526                	mv	a0,s1
   1106a:	74a2                	ld	s1,40(sp)
   1106c:	6121                	addi	sp,sp,64
   1106e:	8082                	ret
   11070:	577d                	li	a4,-1
   11072:	f6e78ce3          	beq	a5,a4,0x10fea
   11076:	54fd                	li	s1,-1
   11078:	b7c9                	j	0x1103a
   1107a:	08893503          	ld	a0,136(s2)
   1107e:	8a022703          	lw	a4,-1888(tp) # 0xfffffffffffff8a0
   11082:	8a020a93          	addi	s5,tp,-1888 # 0xfffffffffffff8a0
   11086:	651c                	ld	a5,8(a0)
   11088:	e311                	bnez	a4,0x1108c
   1108a:	c7b1                	beqz	a5,0x110d6
   1108c:	04fa8a63          	beq	s5,a5,0x110e0
   11090:	4705                	li	a4,1
   11092:	140527af          	lr.w.aq	a5,(a0)
   11096:	e781                	bnez	a5,0x1109e
   11098:	18e526af          	sc.w	a3,a4,(a0)
   1109c:	fafd                	bnez	a3,0x11092
   1109e:	2781                	sext.w	a5,a5
   110a0:	e3ad                	bnez	a5,0x11102
   110a2:	08893783          	ld	a5,136(s2)
   110a6:	000a3503          	ld	a0,0(s4)
   110aa:	0157b423          	sd	s5,8(a5) # 0xffffffff80000008
   110ae:	bf05                	j	0x10fde
   110b0:	84be                	mv	s1,a5
   110b2:	b759                	j	0x11038
   110b4:	c689                	beqz	a3,0x110be
   110b6:	fff6879b          	addiw	a5,a3,-1
   110ba:	c15c                	sw	a5,4(a0)
   110bc:	b745                	j	0x1105c
   110be:	00053423          	sd	zero,8(a0)
   110c2:	87b6                	mv	a5,a3
   110c4:	0af527af          	amoswap.w.rl	a5,a5,(a0)
   110c8:	4705                	li	a4,1
   110ca:	2781                	sext.w	a5,a5
   110cc:	f8f758e3          	bge	a4,a5,0x1105c
   110d0:	3be040ef          	jal	0x1548e
   110d4:	b761                	j	0x1105c
   110d6:	4785                	li	a5,1
   110d8:	c11c                	sw	a5,0(a0)
   110da:	01553423          	sd	s5,8(a0)
   110de:	bdfd                	j	0x10fdc
   110e0:	415c                	lw	a5,4(a0)
   110e2:	2785                	addiw	a5,a5,1
   110e4:	c15c                	sw	a5,4(a0)
   110e6:	bddd                	j	0x10fdc
   110e8:	20c000ef          	jal	0x112f4
   110ec:	000a3503          	ld	a0,0(s4)
   110f0:	bf11                	j	0x11004
   110f2:	45a9                	li	a1,10
   110f4:	58c020ef          	jal	0x13680
   110f8:	57fd                	li	a5,-1
   110fa:	f2f518e3          	bne	a0,a5,0x1102a
   110fe:	54fd                	li	s1,-1
   11100:	bf2d                	j	0x1103a
   11102:	2e6040ef          	jal	0x153e8
   11106:	bf71                	j	0x110a2
   11108:	00092783          	lw	a5,0(s2)
   1110c:	84aa                	mv	s1,a0
   1110e:	03079713          	slli	a4,a5,0x30
   11112:	00074d63          	bltz	a4,0x1112c
   11116:	08893503          	ld	a0,136(s2)
   1111a:	8a022703          	lw	a4,-1888(tp) # 0xfffffffffffff8a0
   1111e:	4154                	lw	a3,4(a0)
   11120:	eb09                	bnez	a4,0x11132
   11122:	e68d                	bnez	a3,0x1114c
   11124:	00053423          	sd	zero,8(a0)
   11128:	00052023          	sw	zero,0(a0)
   1112c:	8526                	mv	a0,s1
   1112e:	6223e0ef          	jal	0x4f750
   11132:	ee89                	bnez	a3,0x1114c
   11134:	00053423          	sd	zero,8(a0)
   11138:	87b6                	mv	a5,a3
   1113a:	0af527af          	amoswap.w.rl	a5,a5,(a0)
   1113e:	4705                	li	a4,1
   11140:	2781                	sext.w	a5,a5
   11142:	fef755e3          	bge	a4,a5,0x1112c
   11146:	348040ef          	jal	0x1548e
   1114a:	b7cd                	j	0x1112c
   1114c:	fff6879b          	addiw	a5,a3,-1
   11150:	c15c                	sw	a5,4(a0)
   11152:	bfe9                	j	0x1112c
   11154:	712d                	addi	sp,sp,-288
   11156:	e9a2                	sd	s0,208(sp)
   11158:	ed86                	sd	ra,216(sp)
   1115a:	1180                	addi	s0,sp,224
   1115c:	e5a6                	sd	s1,200(sp)
   1115e:	e1ca                	sd	s2,192(sp)
   11160:	fd4e                	sd	s3,184(sp)
   11162:	f952                	sd	s4,176(sp)
   11164:	f556                	sd	s5,168(sp)
   11166:	f15a                	sd	s6,160(sp)
   11168:	ed5e                	sd	s7,152(sp)
   1116a:	e962                	sd	s8,144(sp)
   1116c:	e566                	sd	s9,136(sp)
   1116e:	f41c                	sd	a5,40(s0)
   11170:	e40c                	sd	a1,8(s0)
   11172:	e810                	sd	a2,16(s0)
   11174:	ec14                	sd	a3,24(s0)
   11176:	f018                	sd	a4,32(s0)
   11178:	03043823          	sd	a6,48(s0)
   1117c:	03143c23          	sd	a7,56(s0)
   11180:	00071797          	auipc	a5,0x71
   11184:	a907b783          	ld	a5,-1392(a5) # 0x81c10
   11188:	00054a83          	lbu	s5,0(a0)
   1118c:	6398                	ld	a4,0(a5)
   1118e:	f8e43c23          	sd	a4,-104(s0)
   11192:	4701                	li	a4,0
   11194:	00840793          	addi	a5,s0,8
   11198:	f2f43023          	sd	a5,-224(s0)
   1119c:	120a8f63          	beqz	s5,0x112da
   111a0:	f2840913          	addi	s2,s0,-216
   111a4:	89aa                	mv	s3,a0
   111a6:	8b4a                	mv	s6,s2
   111a8:	8bca                	mv	s7,s2
   111aa:	4c81                	li	s9,0
   111ac:	4c01                	li	s8,0
   111ae:	02500493          	li	s1,37
   111b2:	07300a13          	li	s4,115
   111b6:	87d6                	mv	a5,s5
   111b8:	854e                	mv	a0,s3
   111ba:	02978e63          	beq	a5,s1,0x111f6
   111be:	02500593          	li	a1,37
   111c2:	0505                	addi	a0,a0,1
   111c4:	7c2090ef          	jal	0x1a986
   111c8:	00054783          	lbu	a5,0(a0)
   111cc:	f7fd                	bnez	a5,0x111ba
   111ce:	029a8a63          	beq	s5,s1,0x11202
   111d2:	413507b3          	sub	a5,a0,s3
   111d6:	8ace                	mv	s5,s3
   111d8:	015bb023          	sd	s5,0(s7)
   111dc:	00fbb423          	sd	a5,8(s7)
   111e0:	89aa                	mv	s3,a0
   111e2:	0009ca83          	lbu	s5,0(s3)
   111e6:	9cbe                	add	s9,s9,a5
   111e8:	001c061b          	addiw	a2,s8,1
   111ec:	0bc1                	addi	s7,s7,16
   111ee:	040a8663          	beqz	s5,0x1123a
   111f2:	8c32                	mv	s8,a2
   111f4:	b7c9                	j	0x111b6
   111f6:	00154783          	lbu	a5,1(a0)
   111fa:	fd4792e3          	bne	a5,s4,0x111be
   111fe:	fc9a9ae3          	bne	s5,s1,0x111d2
   11202:	0019c783          	lbu	a5,1(s3)
   11206:	fd4796e3          	bne	a5,s4,0x111d2
   1120a:	f2043783          	ld	a5,-224(s0)
   1120e:	0989                	addi	s3,s3,2
   11210:	0bc1                	addi	s7,s7,16
   11212:	0007ba83          	ld	s5,0(a5)
   11216:	07a1                	addi	a5,a5,8
   11218:	f2f43023          	sd	a5,-224(s0)
   1121c:	8556                	mv	a0,s5
   1121e:	0d7090ef          	jal	0x1aaf4
   11222:	87aa                	mv	a5,a0
   11224:	ff5bb823          	sd	s5,-16(s7)
   11228:	fefbbc23          	sd	a5,-8(s7)
   1122c:	0009ca83          	lbu	s5,0(s3)
   11230:	9cbe                	add	s9,s9,a5
   11232:	001c061b          	addiw	a2,s8,1
   11236:	fa0a9ee3          	bnez	s5,0x111f2
   1123a:	77fd                	lui	a5,0xfffff
   1123c:	5771                	li	a4,-4
   1123e:	a019                	j	0x11244
   11240:	00e51a63          	bne	a0,a4,0x11254
   11244:	04200893          	li	a7,66
   11248:	4509                	li	a0,2
   1124a:	85ca                	mv	a1,s2
   1124c:	00000073          	ecall
   11250:	fea7e8e3          	bltu	a5,a0,0x11240
   11254:	00071797          	auipc	a5,0x71
   11258:	d6c7b783          	ld	a5,-660(a5) # 0x81fc0
   1125c:	6394                	ld	a3,0(a5)
   1125e:	577d                	li	a4,-1
   11260:	4781                	li	a5,0
   11262:	00dc89b3          	add	s3,s9,a3
   11266:	40d006b3          	neg	a3,a3
   1126a:	00d9f9b3          	and	s3,s3,a3
   1126e:	460d                	li	a2,3
   11270:	02200693          	li	a3,34
   11274:	85ce                	mv	a1,s3
   11276:	4501                	li	a0,0
   11278:	3c00b0ef          	jal	0x1c638
   1127c:	57fd                	li	a5,-1
   1127e:	8a2a                	mv	s4,a0
   11280:	04f50d63          	beq	a0,a5,0x112da
   11284:	0941                	addi	s2,s2,16
   11286:	004c1493          	slli	s1,s8,0x4
   1128a:	01352023          	sw	s3,0(a0)
   1128e:	94ca                	add	s1,s1,s2
   11290:	0511                	addi	a0,a0,4
   11292:	a011                	j	0x11296
   11294:	0941                	addi	s2,s2,16
   11296:	008b3603          	ld	a2,8(s6)
   1129a:	000b3583          	ld	a1,0(s6)
   1129e:	45e090ef          	jal	0x1a6fc
   112a2:	008b3783          	ld	a5,8(s6)
   112a6:	8b4a                	mv	s6,s2
   112a8:	953e                	add	a0,a0,a5
   112aa:	fe9915e3          	bne	s2,s1,0x11294
   112ae:	00050023          	sb	zero,0(a0)
   112b2:	00042617          	auipc	a2,0x42
   112b6:	85e60613          	addi	a2,a2,-1954 # 0x52b10
   112ba:	8552                	mv	a0,s4
   112bc:	85ce                	mv	a1,s3
   112be:	4fa0b0ef          	jal	0x1c7b8
   112c2:	00077797          	auipc	a5,0x77
   112c6:	5f678793          	addi	a5,a5,1526 # 0x888b8
   112ca:	8552                	mv	a0,s4
   112cc:	0ca7b52f          	amoswap.d.aq	a0,a0,(a5)
   112d0:	c509                	beqz	a0,0x112da
   112d2:	00056583          	lwu	a1,0(a0)
   112d6:	3c60b0ef          	jal	0x1c69c
   112da:	f8bfe0ef          	jal	0x10264
   112de:	1141                	addi	sp,sp,-16
   112e0:	e022                	sd	s0,0(sp)
   112e2:	e406                	sd	ra,8(sp)
   112e4:	0800                	addi	s0,sp,16
   112e6:	85aa                	mv	a1,a0
   112e8:	00042517          	auipc	a0,0x42
   112ec:	83850513          	addi	a0,a0,-1992 # 0x52b20
   112f0:	e65ff0ef          	jal	0x11154
   112f4:	00071797          	auipc	a5,0x71
   112f8:	b3c7b783          	ld	a5,-1220(a5) # 0x81e30
   112fc:	c391                	beqz	a5,0x11300
   112fe:	8082                	ret
   11300:	1141                	addi	sp,sp,-16
   11302:	e022                	sd	s0,0(sp)
   11304:	e406                	sd	ra,8(sp)
   11306:	0800                	addi	s0,sp,16
   11308:	00042517          	auipc	a0,0x42
   1130c:	82050513          	addi	a0,a0,-2016 # 0x52b28
   11310:	fcfff0ef          	jal	0x112de
   11314:	7139                	addi	sp,sp,-64
   11316:	f822                	sd	s0,48(sp)
   11318:	f426                	sd	s1,40(sp)
   1131a:	f04a                	sd	s2,32(sp)
   1131c:	ec4e                	sd	s3,24(sp)
   1131e:	e852                	sd	s4,16(sp)
   11320:	e456                	sd	s5,8(sp)
   11322:	fc06                	sd	ra,56(sp)
   11324:	0080                	addi	s0,sp,64
   11326:	411c                	lw	a5,0(a0)
   11328:	0d853903          	ld	s2,216(a0)
   1132c:	84aa                	mv	s1,a0
   1132e:	03379713          	slli	a4,a5,0x33
   11332:	8a2e                	mv	s4,a1
   11334:	8ab2                	mv	s5,a2
   11336:	0006f997          	auipc	s3,0x6f
   1133a:	a4a98993          	addi	s3,s3,-1462 # 0x7fd80
   1133e:	06075263          	bgez	a4,0x113a2
   11342:	57fd                	li	a5,-1
   11344:	e95c                	sd	a5,144(a0)
   11346:	6785                	lui	a5,0x1
   11348:	413909b3          	sub	s3,s2,s3
   1134c:	92f78793          	addi	a5,a5,-1745 # 0x92f
   11350:	0b37e763          	bltu	a5,s3,0x113fe
   11354:	07893783          	ld	a5,120(s2)
   11358:	8656                	mv	a2,s5
   1135a:	85d2                	mv	a1,s4
   1135c:	8526                	mv	a0,s1
   1135e:	9782                	jalr	a5
   11360:	0804d783          	lhu	a5,128(s1)
   11364:	892a                	mv	s2,a0
   11366:	c391                	beqz	a5,0x1136a
   11368:	e535                	bnez	a0,0x113d4
   1136a:	7c9c                	ld	a5,56(s1)
   1136c:	0c04a703          	lw	a4,192(s1)
   11370:	ec9c                	sd	a5,24(s1)
   11372:	e49c                	sd	a5,8(s1)
   11374:	e89c                	sd	a5,16(s1)
   11376:	f49c                	sd	a5,40(s1)
   11378:	f09c                	sd	a5,32(s1)
   1137a:	00e05e63          	blez	a4,0x11396
   1137e:	60bc                	ld	a5,64(s1)
   11380:	f89c                	sd	a5,48(s1)
   11382:	70e2                	ld	ra,56(sp)
   11384:	7442                	ld	s0,48(sp)
   11386:	74a2                	ld	s1,40(sp)
   11388:	69e2                	ld	s3,24(sp)
   1138a:	6a42                	ld	s4,16(sp)
   1138c:	6aa2                	ld	s5,8(sp)
   1138e:	854a                	mv	a0,s2
   11390:	7902                	ld	s2,32(sp)
   11392:	6121                	addi	sp,sp,64
   11394:	8082                	ret
   11396:	4098                	lw	a4,0(s1)
   11398:	20277713          	andi	a4,a4,514
   1139c:	f375                	bnez	a4,0x11380
   1139e:	60bc                	ld	a5,64(s1)
   113a0:	b7c5                	j	0x11380
   113a2:	6914                	ld	a3,16(a0)
   113a4:	710c                	ld	a1,32(a0)
   113a6:	fab680e3          	beq	a3,a1,0x11346
   113aa:	6785                	lui	a5,0x1
   113ac:	41390733          	sub	a4,s2,s3
   113b0:	92f78793          	addi	a5,a5,-1745 # 0x92f
   113b4:	04e7e863          	bltu	a5,a4,0x11404
   113b8:	08093783          	ld	a5,128(s2)
   113bc:	4605                	li	a2,1
   113be:	8d95                	sub	a1,a1,a3
   113c0:	8526                	mv	a0,s1
   113c2:	9782                	jalr	a5
   113c4:	57fd                	li	a5,-1
   113c6:	4901                	li	s2,0
   113c8:	faf50de3          	beq	a0,a5,0x11382
   113cc:	0d84b903          	ld	s2,216(s1)
   113d0:	e8c8                	sd	a0,144(s1)
   113d2:	bf95                	j	0x11346
   113d4:	0005061b          	sext.w	a2,a0
   113d8:	85d2                	mv	a1,s4
   113da:	fff7851b          	addiw	a0,a5,-1
   113de:	51b020ef          	jal	0x140f8
   113e2:	7c9c                	ld	a5,56(s1)
   113e4:	0c04a703          	lw	a4,192(s1)
   113e8:	2505                	addiw	a0,a0,1
   113ea:	08a49023          	sh	a0,128(s1)
   113ee:	ec9c                	sd	a5,24(s1)
   113f0:	e49c                	sd	a5,8(s1)
   113f2:	e89c                	sd	a5,16(s1)
   113f4:	f49c                	sd	a5,40(s1)
   113f6:	f09c                	sd	a5,32(s1)
   113f8:	f8e043e3          	bgtz	a4,0x1137e
   113fc:	bf69                	j	0x11396
   113fe:	ef7ff0ef          	jal	0x112f4
   11402:	bf89                	j	0x11354
   11404:	ef1ff0ef          	jal	0x112f4
   11408:	708c                	ld	a1,32(s1)
   1140a:	6894                	ld	a3,16(s1)
   1140c:	b775                	j	0x113b8
   1140e:	7131                	addi	sp,sp,-192
   11410:	f922                	sd	s0,176(sp)
   11412:	f526                	sd	s1,168(sp)
   11414:	f14a                	sd	s2,160(sp)
   11416:	ed4e                	sd	s3,152(sp)
   11418:	0180                	addi	s0,sp,192
   1141a:	fd06                	sd	ra,184(sp)
   1141c:	0d853903          	ld	s2,216(a0)
   11420:	00070997          	auipc	s3,0x70
   11424:	7f09b983          	ld	s3,2032(s3) # 0x81c10
   11428:	0009b703          	ld	a4,0(s3)
   1142c:	fce43423          	sd	a4,-56(s0)
   11430:	4701                	li	a4,0
   11432:	6785                	lui	a5,0x1
   11434:	0006f717          	auipc	a4,0x6f
   11438:	94c70713          	addi	a4,a4,-1716 # 0x7fd80
   1143c:	40e90733          	sub	a4,s2,a4
   11440:	92f78793          	addi	a5,a5,-1745 # 0x92f
   11444:	84aa                	mv	s1,a0
   11446:	10e7eb63          	bltu	a5,a4,0x1155c
   1144a:	09093783          	ld	a5,144(s2)
   1144e:	f4840593          	addi	a1,s0,-184
   11452:	8526                	mv	a0,s1
   11454:	9782                	jalr	a5
   11456:	892a                	mv	s2,a0
   11458:	ed3d                	bnez	a0,0x114d6
   1145a:	f5842783          	lw	a5,-168(s0)
   1145e:	66bd                	lui	a3,0xf
   11460:	6721                	lui	a4,0x8
   11462:	8ff5                	and	a5,a5,a3
   11464:	06e79963          	bne	a5,a4,0x114d6
   11468:	e952                	sd	s4,144(sp)
   1146a:	f7843a03          	ld	s4,-136(s0)
   1146e:	060a0363          	beqz	s4,0x114d4
   11472:	3ad0a0ef          	jal	0x1c01e
   11476:	7c98                	ld	a4,56(s1)
   11478:	60bc                	ld	a5,64(s1)
   1147a:	fffa0613          	addi	a2,s4,-1
   1147e:	40a006b3          	neg	a3,a0
   11482:	8f99                	sub	a5,a5,a4
   11484:	17fd                	addi	a5,a5,-1
   11486:	962a                	add	a2,a2,a0
   11488:	97aa                	add	a5,a5,a0
   1148a:	8e75                	and	a2,a2,a3
   1148c:	8ff5                	and	a5,a5,a3
   1148e:	0cf66a63          	bltu	a2,a5,0x11562
   11492:	014705b3          	add	a1,a4,s4
   11496:	0ac7e463          	bltu	a5,a2,0x1153e
   1149a:	6894                	ld	a3,16(s1)
   1149c:	6490                	ld	a2,8(s1)
   1149e:	68dc                	ld	a5,144(s1)
   114a0:	e0ac                	sd	a1,64(s1)
   114a2:	8e91                	sub	a3,a3,a2
   114a4:	8f95                	sub	a5,a5,a3
   114a6:	e8dc                	sd	a5,144(s1)
   114a8:	ec98                	sd	a4,24(s1)
   114aa:	0947d663          	bge	a5,s4,0x11536
   114ae:	58a8                	lw	a0,112(s1)
   114b0:	973e                	add	a4,a4,a5
   114b2:	e498                	sd	a4,8(s1)
   114b4:	e88c                	sd	a1,16(s1)
   114b6:	4601                	li	a2,0
   114b8:	85d2                	mv	a1,s4
   114ba:	6700a0ef          	jal	0x1bb2a
   114be:	60bc                	ld	a5,64(s1)
   114c0:	7c98                	ld	a4,56(s1)
   114c2:	8f99                	sub	a5,a5,a4
   114c4:	0aa78b63          	beq	a5,a0,0x1157a
   114c8:	409c                	lw	a5,0(s1)
   114ca:	6a4a                	ld	s4,144(sp)
   114cc:	0207e793          	ori	a5,a5,32
   114d0:	c09c                	sw	a5,0(s1)
   114d2:	a835                	j	0x1150e
   114d4:	6a4a                	ld	s4,144(sp)
   114d6:	7c88                	ld	a0,56(s1)
   114d8:	60ac                	ld	a1,64(s1)
   114da:	8d89                	sub	a1,a1,a0
   114dc:	1c00b0ef          	jal	0x1c69c
   114e0:	0c04a683          	lw	a3,192(s1)
   114e4:	0006f797          	auipc	a5,0x6f
   114e8:	be478793          	addi	a5,a5,-1052 # 0x800c8
   114ec:	0404b023          	sd	zero,64(s1)
   114f0:	0204bc23          	sd	zero,56(s1)
   114f4:	0004bc23          	sd	zero,24(s1)
   114f8:	0004b423          	sd	zero,8(s1)
   114fc:	0004b823          	sd	zero,16(s1)
   11500:	873e                	mv	a4,a5
   11502:	02d05563          	blez	a3,0x1152c
   11506:	70d4                	ld	a3,160(s1)
   11508:	ecf8                	sd	a4,216(s1)
   1150a:	4905                	li	s2,1
   1150c:	f2fc                	sd	a5,224(a3)
   1150e:	fc843703          	ld	a4,-56(s0)
   11512:	0009b783          	ld	a5,0(s3)
   11516:	8fb9                	xor	a5,a5,a4
   11518:	4701                	li	a4,0
   1151a:	ebb5                	bnez	a5,0x1158e
   1151c:	70ea                	ld	ra,184(sp)
   1151e:	744a                	ld	s0,176(sp)
   11520:	74aa                	ld	s1,168(sp)
   11522:	69ea                	ld	s3,152(sp)
   11524:	854a                	mv	a0,s2
   11526:	790a                	ld	s2,160(sp)
   11528:	6129                	addi	sp,sp,192
   1152a:	8082                	ret
   1152c:	0006f717          	auipc	a4,0x6f
   11530:	9a470713          	addi	a4,a4,-1628 # 0x7fed0
   11534:	bfc9                	j	0x11506
   11536:	6a4a                	ld	s4,144(sp)
   11538:	e48c                	sd	a1,8(s1)
   1153a:	e88c                	sd	a1,16(s1)
   1153c:	bfc9                	j	0x1150e
   1153e:	85be                	mv	a1,a5
   11540:	853a                	mv	a0,a4
   11542:	4685                	li	a3,1
   11544:	1f20b0ef          	jal	0x1c736
   11548:	57fd                	li	a5,-1
   1154a:	872a                	mv	a4,a0
   1154c:	02f50a63          	beq	a0,a5,0x11580
   11550:	f7843a03          	ld	s4,-136(s0)
   11554:	fc88                	sd	a0,56(s1)
   11556:	014505b3          	add	a1,a0,s4
   1155a:	b781                	j	0x1149a
   1155c:	d99ff0ef          	jal	0x112f4
   11560:	b5ed                	j	0x1144a
   11562:	40c785b3          	sub	a1,a5,a2
   11566:	00c70533          	add	a0,a4,a2
   1156a:	1320b0ef          	jal	0x1c69c
   1156e:	7c98                	ld	a4,56(s1)
   11570:	f7843a03          	ld	s4,-136(s0)
   11574:	014705b3          	add	a1,a4,s4
   11578:	b70d                	j	0x1149a
   1157a:	6a4a                	ld	s4,144(sp)
   1157c:	e8dc                	sd	a5,144(s1)
   1157e:	bf41                	j	0x1150e
   11580:	7c88                	ld	a0,56(s1)
   11582:	60ac                	ld	a1,64(s1)
   11584:	8d89                	sub	a1,a1,a0
   11586:	1160b0ef          	jal	0x1c69c
   1158a:	6a4a                	ld	s4,144(sp)
   1158c:	bf91                	j	0x114e0
   1158e:	e952                	sd	s4,144(sp)
   11590:	79e0b0ef          	jal	0x1cd2e
   11594:	7131                	addi	sp,sp,-192
   11596:	f922                	sd	s0,176(sp)
   11598:	f526                	sd	s1,168(sp)
   1159a:	f14a                	sd	s2,160(sp)
   1159c:	ed4e                	sd	s3,152(sp)
   1159e:	0180                	addi	s0,sp,192
   115a0:	fd06                	sd	ra,184(sp)
   115a2:	0d853983          	ld	s3,216(a0)
   115a6:	00070917          	auipc	s2,0x70
   115aa:	66a93903          	ld	s2,1642(s2) # 0x81c10
   115ae:	00093703          	ld	a4,0(s2)
   115b2:	fce43423          	sd	a4,-56(s0)
   115b6:	4701                	li	a4,0
   115b8:	6785                	lui	a5,0x1
   115ba:	0006e717          	auipc	a4,0x6e
   115be:	7c670713          	addi	a4,a4,1990 # 0x7fd80
   115c2:	40e98733          	sub	a4,s3,a4
   115c6:	92f78793          	addi	a5,a5,-1745 # 0x92f
   115ca:	84aa                	mv	s1,a0
   115cc:	0ae7e463          	bltu	a5,a4,0x11674
   115d0:	0909b783          	ld	a5,144(s3)
   115d4:	f4840593          	addi	a1,s0,-184
   115d8:	8526                	mv	a0,s1
   115da:	9782                	jalr	a5
   115dc:	e901                	bnez	a0,0x115ec
   115de:	f5842783          	lw	a5,-168(s0)
   115e2:	66bd                	lui	a3,0xf
   115e4:	6721                	lui	a4,0x8
   115e6:	8ff5                	and	a5,a5,a3
   115e8:	04e78063          	beq	a5,a4,0x11628
   115ec:	0c04a683          	lw	a3,192(s1)
   115f0:	0006f797          	auipc	a5,0x6f
   115f4:	ad878793          	addi	a5,a5,-1320 # 0x800c8
   115f8:	873e                	mv	a4,a5
   115fa:	00d04663          	bgtz	a3,0x11606
   115fe:	0006f717          	auipc	a4,0x6f
   11602:	8d270713          	addi	a4,a4,-1838 # 0x7fed0
   11606:	70d4                	ld	a3,160(s1)
   11608:	ecf8                	sd	a4,216(s1)
   1160a:	f2fc                	sd	a5,224(a3)
   1160c:	fc843703          	ld	a4,-56(s0)
   11610:	00093783          	ld	a5,0(s2)
   11614:	8fb9                	xor	a5,a5,a4
   11616:	4701                	li	a4,0
   11618:	ebdd                	bnez	a5,0x116ce
   1161a:	70ea                	ld	ra,184(sp)
   1161c:	744a                	ld	s0,176(sp)
   1161e:	74aa                	ld	s1,168(sp)
   11620:	790a                	ld	s2,160(sp)
   11622:	69ea                	ld	s3,152(sp)
   11624:	6129                	addi	sp,sp,192
   11626:	8082                	ret
   11628:	f7843583          	ld	a1,-136(s0)
   1162c:	d1e1                	beqz	a1,0x115ec
   1162e:	68dc                	ld	a5,144(s1)
   11630:	577d                	li	a4,-1
   11632:	00e78463          	beq	a5,a4,0x1163a
   11636:	faf5cbe3          	blt	a1,a5,0x115ec
   1163a:	58b8                	lw	a4,112(s1)
   1163c:	4781                	li	a5,0
   1163e:	4685                	li	a3,1
   11640:	4605                	li	a2,1
   11642:	4501                	li	a0,0
   11644:	e952                	sd	s4,144(sp)
   11646:	7f30a0ef          	jal	0x1c638
   1164a:	5a7d                	li	s4,-1
   1164c:	89aa                	mv	s3,a0
   1164e:	03450663          	beq	a0,s4,0x1167a
   11652:	f7843583          	ld	a1,-136(s0)
   11656:	58a8                	lw	a0,112(s1)
   11658:	4601                	li	a2,0
   1165a:	4d00a0ef          	jal	0x1bb2a
   1165e:	f7843583          	ld	a1,-136(s0)
   11662:	00a58e63          	beq	a1,a0,0x1167e
   11666:	854e                	mv	a0,s3
   11668:	0340b0ef          	jal	0x1c69c
   1166c:	0944b823          	sd	s4,144(s1)
   11670:	6a4a                	ld	s4,144(sp)
   11672:	bfad                	j	0x115ec
   11674:	c81ff0ef          	jal	0x112f4
   11678:	bfa1                	j	0x115d0
   1167a:	6a4a                	ld	s4,144(sp)
   1167c:	bf85                	j	0x115ec
   1167e:	4681                	li	a3,0
   11680:	00b98633          	add	a2,s3,a1
   11684:	8526                	mv	a0,s1
   11686:	85ce                	mv	a1,s3
   11688:	24a020ef          	jal	0x138d2
   1168c:	68dc                	ld	a5,144(s1)
   1168e:	86ce                	mv	a3,s3
   11690:	01478463          	beq	a5,s4,0x11698
   11694:	00f986b3          	add	a3,s3,a5
   11698:	f7843703          	ld	a4,-136(s0)
   1169c:	0c04a603          	lw	a2,192(s1)
   116a0:	0006f797          	auipc	a5,0x6f
   116a4:	ad078793          	addi	a5,a5,-1328 # 0x80170
   116a8:	00e985b3          	add	a1,s3,a4
   116ac:	e8d8                	sd	a4,144(s1)
   116ae:	0134bc23          	sd	s3,24(s1)
   116b2:	e494                	sd	a3,8(s1)
   116b4:	e88c                	sd	a1,16(s1)
   116b6:	873e                	mv	a4,a5
   116b8:	00c04663          	bgtz	a2,0x116c4
   116bc:	0006f717          	auipc	a4,0x6f
   116c0:	8bc70713          	addi	a4,a4,-1860 # 0x7ff78
   116c4:	70d4                	ld	a3,160(s1)
   116c6:	ecf8                	sd	a4,216(s1)
   116c8:	6a4a                	ld	s4,144(sp)
   116ca:	f2fc                	sd	a5,224(a3)
   116cc:	b781                	j	0x1160c
   116ce:	e952                	sd	s4,144(sp)
   116d0:	65e0b0ef          	jal	0x1cd2e
   116d4:	1101                	addi	sp,sp,-32
   116d6:	e822                	sd	s0,16(sp)
   116d8:	e426                	sd	s1,8(sp)
   116da:	e04a                	sd	s2,0(sp)
   116dc:	ec06                	sd	ra,24(sp)
   116de:	1000                	addi	s0,sp,32
   116e0:	411c                	lw	a5,0(a0)
   116e2:	6709                	lui	a4,0x2
   116e4:	40c70713          	addi	a4,a4,1036 # 0x240c
   116e8:	597d                	li	s2,-1
   116ea:	8fd9                	or	a5,a5,a4
   116ec:	09253823          	sd	s2,144(a0)
   116f0:	c11c                	sw	a5,0(a0)
   116f2:	84aa                	mv	s1,a0
   116f4:	419010ef          	jal	0x1330c
   116f8:	60e2                	ld	ra,24(sp)
   116fa:	6442                	ld	s0,16(sp)
   116fc:	0724a823          	sw	s2,112(s1)
   11700:	64a2                	ld	s1,8(sp)
   11702:	6902                	ld	s2,0(sp)
   11704:	6105                	addi	sp,sp,32
   11706:	8082                	ret
   11708:	1101                	addi	sp,sp,-32
   1170a:	e822                	sd	s0,16(sp)
   1170c:	e426                	sd	s1,8(sp)
   1170e:	e04a                	sd	s2,0(sp)
   11710:	ec06                	sd	ra,24(sp)
   11712:	1000                	addi	s0,sp,32
   11714:	411c                	lw	a5,0(a0)
   11716:	6709                	lui	a4,0x2
   11718:	40c70713          	addi	a4,a4,1036 # 0x240c
   1171c:	597d                	li	s2,-1
   1171e:	8fd9                	or	a5,a5,a4
   11720:	09253823          	sd	s2,144(a0)
   11724:	c11c                	sw	a5,0(a0)
   11726:	84aa                	mv	s1,a0
   11728:	3e5010ef          	jal	0x1330c
   1172c:	60e2                	ld	ra,24(sp)
   1172e:	6442                	ld	s0,16(sp)
   11730:	0724a823          	sw	s2,112(s1)
   11734:	64a2                	ld	s1,8(sp)
   11736:	6902                	ld	s2,0(sp)
   11738:	6105                	addi	sp,sp,32
   1173a:	8082                	ret
   1173c:	7179                	addi	sp,sp,-48
   1173e:	f022                	sd	s0,32(sp)
   11740:	ec26                	sd	s1,24(sp)
   11742:	e84a                	sd	s2,16(sp)
   11744:	f406                	sd	ra,40(sp)
   11746:	e44e                	sd	s3,8(sp)
   11748:	1800                	addi	s0,sp,48
   1174a:	597c                	lw	a5,116(a0)
   1174c:	84aa                	mv	s1,a0
   1174e:	893a                	mv	s2,a4
   11750:	8b89                	andi	a5,a5,2
   11752:	852e                	mv	a0,a1
   11754:	85b2                	mv	a1,a2
   11756:	8636                	mv	a2,a3
   11758:	e7d9                	bnez	a5,0x117e6
   1175a:	4020a0ef          	jal	0x1bb5c
   1175e:	89aa                	mv	s3,a0
   11760:	0809c163          	bltz	s3,0x117e2
   11764:	409c                	lw	a5,0(s1)
   11766:	76fd                	lui	a3,0xfffff
   11768:	6705                	lui	a4,0x1
   1176a:	16cd                	addi	a3,a3,-13 # 0xffffffffffffeff3
   1176c:	0731                	addi	a4,a4,12 # 0x100c
   1176e:	8ff5                	and	a5,a5,a3
   11770:	00e97733          	and	a4,s2,a4
   11774:	6685                	lui	a3,0x1
   11776:	8fd9                	or	a5,a5,a4
   11778:	0691                	addi	a3,a3,4 # 0x1004
   1177a:	0734a823          	sw	s3,112(s1)
   1177e:	c09c                	sw	a5,0(s1)
   11780:	00d97933          	and	s2,s2,a3
   11784:	02d91863          	bne	s2,a3,0x117b4
   11788:	0d84b903          	ld	s2,216(s1)
   1178c:	6785                	lui	a5,0x1
   1178e:	0006e717          	auipc	a4,0x6e
   11792:	5f270713          	addi	a4,a4,1522 # 0x7fd80
   11796:	40e90733          	sub	a4,s2,a4
   1179a:	92f78793          	addi	a5,a5,-1745 # 0x92f
   1179e:	04e7e863          	bltu	a5,a4,0x117ee
   117a2:	08093783          	ld	a5,128(s2)
   117a6:	4609                	li	a2,2
   117a8:	4581                	li	a1,0
   117aa:	8526                	mv	a0,s1
   117ac:	9782                	jalr	a5
   117ae:	57fd                	li	a5,-1
   117b0:	00f50d63          	beq	a0,a5,0x117ca
   117b4:	8526                	mv	a0,s1
   117b6:	357010ef          	jal	0x1330c
   117ba:	8526                	mv	a0,s1
   117bc:	70a2                	ld	ra,40(sp)
   117be:	7402                	ld	s0,32(sp)
   117c0:	64e2                	ld	s1,24(sp)
   117c2:	6942                	ld	s2,16(sp)
   117c4:	69a2                	ld	s3,8(sp)
   117c6:	6145                	addi	sp,sp,48
   117c8:	8082                	ret
   117ca:	00070797          	auipc	a5,0x70
   117ce:	6067b783          	ld	a5,1542(a5) # 0x81dd0
   117d2:	4775                	li	a4,29
   117d4:	9792                	add	a5,a5,tp
   117d6:	439c                	lw	a5,0(a5)
   117d8:	fce78ee3          	beq	a5,a4,0x117b4
   117dc:	854e                	mv	a0,s3
   117de:	58e0a0ef          	jal	0x1bd6c
   117e2:	4501                	li	a0,0
   117e4:	bfe1                	j	0x117bc
   117e6:	6fa0a0ef          	jal	0x1bee0
   117ea:	89aa                	mv	s3,a0
   117ec:	bf95                	j	0x11760
   117ee:	b07ff0ef          	jal	0x112f4
   117f2:	bf45                	j	0x117a2
   117f4:	5934                	lw	a3,112(a0)
   117f6:	57fd                	li	a5,-1
   117f8:	08f69563          	bne	a3,a5,0x11882
   117fc:	7179                	addi	sp,sp,-48
   117fe:	f022                	sd	s0,32(sp)
   11800:	ec26                	sd	s1,24(sp)
   11802:	e84a                	sd	s2,16(sp)
   11804:	e44e                	sd	s3,8(sp)
   11806:	e052                	sd	s4,0(sp)
   11808:	f406                	sd	ra,40(sp)
   1180a:	1800                	addi	s0,sp,48
   1180c:	411c                	lw	a5,0(a0)
   1180e:	00070917          	auipc	s2,0x70
   11812:	5c293903          	ld	s2,1474(s2) # 0x81dd0
   11816:	0d853983          	ld	s3,216(a0)
   1181a:	9bcd                	andi	a5,a5,-13
   1181c:	0407e793          	ori	a5,a5,64
   11820:	6705                	lui	a4,0x1
   11822:	c11c                	sw	a5,0(a0)
   11824:	0006e797          	auipc	a5,0x6e
   11828:	55c78793          	addi	a5,a5,1372 # 0x7fd80
   1182c:	00490633          	add	a2,s2,tp
   11830:	d92c                	sw	a1,112(a0)
   11832:	e954                	sd	a3,144(a0)
   11834:	40f987b3          	sub	a5,s3,a5
   11838:	92f70713          	addi	a4,a4,-1745 # 0x92f
   1183c:	00062a03          	lw	s4,0(a2)
   11840:	84aa                	mv	s1,a0
   11842:	04f76263          	bltu	a4,a5,0x11886
   11846:	0489b783          	ld	a5,72(s3)
   1184a:	468d                	li	a3,3
   1184c:	4605                	li	a2,1
   1184e:	4581                	li	a1,0
   11850:	8526                	mv	a0,s1
   11852:	9782                	jalr	a5
   11854:	57fd                	li	a5,-1
   11856:	00f50e63          	beq	a0,a5,0x11872
   1185a:	9912                	add	s2,s2,tp
   1185c:	01492023          	sw	s4,0(s2)
   11860:	8526                	mv	a0,s1
   11862:	70a2                	ld	ra,40(sp)
   11864:	7402                	ld	s0,32(sp)
   11866:	64e2                	ld	s1,24(sp)
   11868:	6942                	ld	s2,16(sp)
   1186a:	69a2                	ld	s3,8(sp)
   1186c:	6a02                	ld	s4,0(sp)
   1186e:	6145                	addi	sp,sp,48
   11870:	8082                	ret
   11872:	004907b3          	add	a5,s2,tp
   11876:	4398                	lw	a4,0(a5)
   11878:	47f5                	li	a5,29
   1187a:	4501                	li	a0,0
   1187c:	fcf70fe3          	beq	a4,a5,0x1185a
   11880:	b7cd                	j	0x11862
   11882:	4501                	li	a0,0
   11884:	8082                	ret
   11886:	a6fff0ef          	jal	0x112f4
   1188a:	bf75                	j	0x11846
   1188c:	1101                	addi	sp,sp,-32
   1188e:	e822                	sd	s0,16(sp)
   11890:	e426                	sd	s1,8(sp)
   11892:	ec06                	sd	ra,24(sp)
   11894:	1000                	addi	s0,sp,32
   11896:	84aa                	mv	s1,a0
   11898:	378020ef          	jal	0x13c10
   1189c:	c909                	beqz	a0,0x118ae
   1189e:	7c9c                	ld	a5,56(s1)
   118a0:	8526                	mv	a0,s1
   118a2:	f89c                	sd	a5,48(s1)
   118a4:	f49c                	sd	a5,40(s1)
   118a6:	f09c                	sd	a5,32(s1)
   118a8:	ec9c                	sd	a5,24(s1)
   118aa:	e49c                	sd	a5,8(s1)
   118ac:	e89c                	sd	a5,16(s1)
   118ae:	60e2                	ld	ra,24(sp)
   118b0:	6442                	ld	s0,16(sp)
   118b2:	64a2                	ld	s1,8(sp)
   118b4:	6105                	addi	sp,sp,32
   118b6:	8082                	ret
   118b8:	1101                	addi	sp,sp,-32
   118ba:	e822                	sd	s0,16(sp)
   118bc:	e426                	sd	s1,8(sp)
   118be:	ec06                	sd	ra,24(sp)
   118c0:	1000                	addi	s0,sp,32
   118c2:	715c                	ld	a5,160(a0)
   118c4:	0006e717          	auipc	a4,0x6e
   118c8:	60c70713          	addi	a4,a4,1548 # 0x7fed0
   118cc:	ed78                	sd	a4,216(a0)
   118ce:	0006e717          	auipc	a4,0x6e
   118d2:	7fa70713          	addi	a4,a4,2042 # 0x800c8
   118d6:	f3f8                	sd	a4,224(a5)
   118d8:	84aa                	mv	s1,a0
   118da:	336020ef          	jal	0x13c10
   118de:	cd11                	beqz	a0,0x118fa
   118e0:	7c9c                	ld	a5,56(s1)
   118e2:	60e2                	ld	ra,24(sp)
   118e4:	6442                	ld	s0,16(sp)
   118e6:	f89c                	sd	a5,48(s1)
   118e8:	f49c                	sd	a5,40(s1)
   118ea:	f09c                	sd	a5,32(s1)
   118ec:	ec9c                	sd	a5,24(s1)
   118ee:	e49c                	sd	a5,8(s1)
   118f0:	e89c                	sd	a5,16(s1)
   118f2:	8526                	mv	a0,s1
   118f4:	64a2                	ld	s1,8(sp)
   118f6:	6105                	addi	sp,sp,32
   118f8:	8082                	ret
   118fa:	70dc                	ld	a5,160(s1)
   118fc:	60e2                	ld	ra,24(sp)
   118fe:	6442                	ld	s0,16(sp)
   11900:	0006e717          	auipc	a4,0x6e
   11904:	67870713          	addi	a4,a4,1656 # 0x7ff78
   11908:	ecf8                	sd	a4,216(s1)
   1190a:	0006f717          	auipc	a4,0x6f
   1190e:	86670713          	addi	a4,a4,-1946 # 0x80170
   11912:	f3f8                	sd	a4,224(a5)
   11914:	64a2                	ld	s1,8(sp)
   11916:	6105                	addi	sp,sp,32
   11918:	8082                	ret
   1191a:	e219                	bnez	a2,0x11920
   1191c:	4501                	li	a0,0
   1191e:	8082                	ret
   11920:	1101                	addi	sp,sp,-32
   11922:	e822                	sd	s0,16(sp)
   11924:	e426                	sd	s1,8(sp)
   11926:	ec06                	sd	ra,24(sp)
   11928:	1000                	addi	s0,sp,32
   1192a:	84b2                	mv	s1,a2
   1192c:	9e9ff0ef          	jal	0x11314
   11930:	60e2                	ld	ra,24(sp)
   11932:	6442                	ld	s0,16(sp)
   11934:	40a48533          	sub	a0,s1,a0
   11938:	00a03533          	snez	a0,a0
   1193c:	64a2                	ld	s1,8(sp)
   1193e:	40a00533          	neg	a0,a0
   11942:	6105                	addi	sp,sp,32
   11944:	8082                	ret
   11946:	7179                	addi	sp,sp,-48
   11948:	f022                	sd	s0,32(sp)
   1194a:	e44e                	sd	s3,8(sp)
   1194c:	f406                	sd	ra,40(sp)
   1194e:	1800                	addi	s0,sp,48
   11950:	07052983          	lw	s3,112(a0)
   11954:	57fd                	li	a5,-1
   11956:	0cf98763          	beq	s3,a5,0x11a24
   1195a:	611c                	ld	a5,0(a0)
   1195c:	6705                	lui	a4,0x1
   1195e:	80870713          	addi	a4,a4,-2040 # 0x808
   11962:	8ff9                	and	a5,a5,a4
   11964:	ec26                	sd	s1,24(sp)
   11966:	e84a                	sd	s2,16(sp)
   11968:	80078793          	addi	a5,a5,-2048
   1196c:	84aa                	mv	s1,a0
   1196e:	4981                	li	s3,0
   11970:	cbe1                	beqz	a5,0x11a40
   11972:	8526                	mv	a0,s1
   11974:	034030ef          	jal	0x149a8
   11978:	58fc                	lw	a5,116(s1)
   1197a:	4901                	li	s2,0
   1197c:	0207f793          	andi	a5,a5,32
   11980:	e39d                	bnez	a5,0x119a6
   11982:	0d84b903          	ld	s2,216(s1)
   11986:	6785                	lui	a5,0x1
   11988:	0006e717          	auipc	a4,0x6e
   1198c:	3f870713          	addi	a4,a4,1016 # 0x7fd80
   11990:	40e90733          	sub	a4,s2,a4
   11994:	92f78793          	addi	a5,a5,-1745 # 0x92f
   11998:	0ce7e863          	bltu	a5,a4,0x11a68
   1199c:	08893783          	ld	a5,136(s2)
   119a0:	8526                	mv	a0,s1
   119a2:	9782                	jalr	a5
   119a4:	892a                	mv	s2,a0
   119a6:	0c04a783          	lw	a5,192(s1)
   119aa:	02f05b63          	blez	a5,0x119e0
   119ae:	70dc                	ld	a5,160(s1)
   119b0:	63bc                	ld	a5,64(a5)
   119b2:	c781                	beqz	a5,0x119ba
   119b4:	8526                	mv	a0,s1
   119b6:	7481e0ef          	jal	0x300fe
   119ba:	4681                	li	a3,0
   119bc:	4601                	li	a2,0
   119be:	4581                	li	a1,0
   119c0:	8526                	mv	a0,s1
   119c2:	2681e0ef          	jal	0x2fc2a
   119c6:	70dc                	ld	a5,160(s1)
   119c8:	0007b823          	sd	zero,16(a5)
   119cc:	0007b023          	sd	zero,0(a5)
   119d0:	0007b423          	sd	zero,8(a5)
   119d4:	0207b023          	sd	zero,32(a5)
   119d8:	0007bc23          	sd	zero,24(a5)
   119dc:	0207b423          	sd	zero,40(a5)
   119e0:	4681                	li	a3,0
   119e2:	4601                	li	a2,0
   119e4:	4581                	li	a1,0
   119e6:	8526                	mv	a0,s1
   119e8:	6eb010ef          	jal	0x138d2
   119ec:	8526                	mv	a0,s1
   119ee:	0004bc23          	sd	zero,24(s1)
   119f2:	0004b423          	sd	zero,8(s1)
   119f6:	0004b823          	sd	zero,16(s1)
   119fa:	0204b423          	sd	zero,40(s1)
   119fe:	0204b023          	sd	zero,32(s1)
   11a02:	0204b823          	sd	zero,48(s1)
   11a06:	0ed010ef          	jal	0x132f2
   11a0a:	fbad27b7          	lui	a5,0xfbad2
   11a0e:	577d                	li	a4,-1
   11a10:	40c78793          	addi	a5,a5,1036 # 0xfffffffffbad240c
   11a14:	c09c                	sw	a5,0(s1)
   11a16:	d8b8                	sw	a4,112(s1)
   11a18:	e8d8                	sd	a4,144(s1)
   11a1a:	00090b63          	beqz	s2,0x11a30
   11a1e:	89ca                	mv	s3,s2
   11a20:	64e2                	ld	s1,24(sp)
   11a22:	6942                	ld	s2,16(sp)
   11a24:	70a2                	ld	ra,40(sp)
   11a26:	7402                	ld	s0,32(sp)
   11a28:	854e                	mv	a0,s3
   11a2a:	69a2                	ld	s3,8(sp)
   11a2c:	6145                	addi	sp,sp,48
   11a2e:	8082                	ret
   11a30:	70a2                	ld	ra,40(sp)
   11a32:	7402                	ld	s0,32(sp)
   11a34:	64e2                	ld	s1,24(sp)
   11a36:	6942                	ld	s2,16(sp)
   11a38:	854e                	mv	a0,s3
   11a3a:	69a2                	ld	s3,8(sp)
   11a3c:	6145                	addi	sp,sp,48
   11a3e:	8082                	ret
   11a40:	0c052783          	lw	a5,192(a0)
   11a44:	00f05b63          	blez	a5,0x11a5a
   11a48:	715c                	ld	a5,160(a0)
   11a4a:	6f8c                	ld	a1,24(a5)
   11a4c:	7390                	ld	a2,32(a5)
   11a4e:	8e0d                	sub	a2,a2,a1
   11a50:	8609                	srai	a2,a2,0x2
   11a52:	4d51e0ef          	jal	0x30726
   11a56:	89aa                	mv	s3,a0
   11a58:	bf29                	j	0x11972
   11a5a:	710c                	ld	a1,32(a0)
   11a5c:	7510                	ld	a2,40(a0)
   11a5e:	8e0d                	sub	a2,a2,a1
   11a60:	ebbff0ef          	jal	0x1191a
   11a64:	89aa                	mv	s3,a0
   11a66:	b731                	j	0x11972
   11a68:	88dff0ef          	jal	0x112f4
   11a6c:	bf05                	j	0x1199c
   11a6e:	7159                	addi	sp,sp,-112
   11a70:	f0a2                	sd	s0,96(sp)
   11a72:	eca6                	sd	s1,88(sp)
   11a74:	e4ce                	sd	s3,72(sp)
   11a76:	1880                	addi	s0,sp,112
   11a78:	f486                	sd	ra,104(sp)
   11a7a:	e8ca                	sd	s2,80(sp)
   11a7c:	89aa                	mv	s3,a0
   11a7e:	5928                	lw	a0,112(a0)
   11a80:	00070497          	auipc	s1,0x70
   11a84:	1904b483          	ld	s1,400(s1) # 0x81c10
   11a88:	609c                	ld	a5,0(s1)
   11a8a:	faf43c23          	sd	a5,-72(s0)
   11a8e:	4781                	li	a5,0
   11a90:	577d                	li	a4,-1
   11a92:	24e51763          	bne	a0,a4,0x11ce0
   11a96:	00064703          	lbu	a4,0(a2)
   11a9a:	87b6                	mv	a5,a3
   11a9c:	07200693          	li	a3,114
   11aa0:	2cd70863          	beq	a4,a3,0x11d70
   11aa4:	07700693          	li	a3,119
   11aa8:	24d70b63          	beq	a4,a3,0x11cfe
   11aac:	06100693          	li	a3,97
   11ab0:	22d71163          	bne	a4,a3,0x11cd2
   11ab4:	6705                	lui	a4,0x1
   11ab6:	e0d2                	sd	s4,64(sp)
   11ab8:	44000e93          	li	t4,1088
   11abc:	0711                	addi	a4,a4,4 # 0x1004
   11abe:	4f85                	li	t6,1
   11ac0:	00660e13          	addi	t3,a2,6
   11ac4:	8a32                	mv	s4,a2
   11ac6:	07800893          	li	a7,120
   11aca:	06100313          	li	t1,97
   11ace:	4f59                	li	t5,22
   11ad0:	00047697          	auipc	a3,0x47
   11ad4:	5c068693          	addi	a3,a3,1472 # 0x59090
   11ad8:	02b00293          	li	t0,43
   11adc:	00164803          	lbu	a6,1(a2)
   11ae0:	0605                	addi	a2,a2,1
   11ae2:	0308e463          	bltu	a7,a6,0x11b0a
   11ae6:	27037163          	bgeu	t1,a6,0x11d48
   11aea:	f9e8081b          	addiw	a6,a6,-98
   11aee:	0ff87813          	zext.b	a6,a6
   11af2:	010f6c63          	bltu	t5,a6,0x11b0a
   11af6:	080a                	slli	a6,a6,0x2
   11af8:	9836                	add	a6,a6,a3
   11afa:	00082503          	lw	a0,0(a6)
   11afe:	9536                	add	a0,a0,a3
   11b00:	8502                	jr	a0
   11b02:	6505                	lui	a0,0x1
   11b04:	8f69                	and	a4,a4,a0
   11b06:	8a32                	mv	s4,a2
   11b08:	4f89                	li	t6,2
   11b0a:	fdc619e3          	bne	a2,t3,0x11adc
   11b0e:	1b600693          	li	a3,438
   11b12:	01fee633          	or	a2,t4,t6
   11b16:	854e                	mv	a0,s3
   11b18:	c25ff0ef          	jal	0x1173c
   11b1c:	892a                	mv	s2,a0
   11b1e:	24050763          	beqz	a0,0x11d6c
   11b22:	00041597          	auipc	a1,0x41
   11b26:	03e58593          	addi	a1,a1,62 # 0x52b60
   11b2a:	001a0513          	addi	a0,s4,1
   11b2e:	4b8090ef          	jal	0x1afe6
   11b32:	24050463          	beqz	a0,0x11d7a
   11b36:	00550a13          	addi	s4,a0,5 # 0x1005
   11b3a:	02c00593          	li	a1,44
   11b3e:	8552                	mv	a0,s4
   11b40:	fc56                	sd	s5,56(sp)
   11b42:	f85a                	sd	s6,48(sp)
   11b44:	643080ef          	jal	0x1a986
   11b48:	41450b33          	sub	s6,a0,s4
   11b4c:	003b0513          	addi	a0,s6,3
   11b50:	416070ef          	jal	0x18f66
   11b54:	8aaa                	mv	s5,a0
   11b56:	26050a63          	beqz	a0,0x11dca
   11b5a:	865a                	mv	a2,s6
   11b5c:	85d2                	mv	a1,s4
   11b5e:	39f080ef          	jal	0x1a6fc
   11b62:	955a                	add	a0,a0,s6
   11b64:	00050023          	sb	zero,0(a0)
   11b68:	000ac783          	lbu	a5,0(s5)
   11b6c:	24078763          	beqz	a5,0x11dba
   11b70:	557d                	li	a0,-1
   11b72:	00070717          	auipc	a4,0x70
   11b76:	e2670713          	addi	a4,a4,-474 # 0x81998
   11b7a:	1516                	slli	a0,a0,0x25
   11b7c:	157d                	addi	a0,a0,-1
   11b7e:	7730                	ld	a2,104(a4)
   11b80:	7f2c                	ld	a1,120(a4)
   11b82:	053a                	slli	a0,a0,0xe
   11b84:	86d6                	mv	a3,s5
   11b86:	8856                	mv	a6,s5
   11b88:	4301                	li	t1,0
   11b8a:	03300893          	li	a7,51
   11b8e:	1561                	addi	a0,a0,-8
   11b90:	00179713          	slli	a4,a5,0x1
   11b94:	9732                	add	a4,a4,a2
   11b96:	00075703          	lhu	a4,0(a4)
   11b9a:	8b21                	andi	a4,a4,8
   11b9c:	ef01                	bnez	a4,0x11bb4
   11b9e:	fd47871b          	addiw	a4,a5,-44
   11ba2:	0ff77713          	zext.b	a4,a4
   11ba6:	00e8ed63          	bltu	a7,a4,0x11bc0
   11baa:	40e55733          	sra	a4,a0,a4
   11bae:	8b05                	andi	a4,a4,1
   11bb0:	1c071763          	bnez	a4,0x11d7e
   11bb4:	078a                	slli	a5,a5,0x2
   11bb6:	97ae                	add	a5,a5,a1
   11bb8:	439c                	lw	a5,0(a5)
   11bba:	0805                	addi	a6,a6,1
   11bbc:	fef80fa3          	sb	a5,-1(a6)
   11bc0:	0016c783          	lbu	a5,1(a3)
   11bc4:	0685                	addi	a3,a3,1
   11bc6:	f7e9                	bnez	a5,0x11b90
   11bc8:	4705                	li	a4,1
   11bca:	0013079b          	addiw	a5,t1,1
   11bce:	02674063          	blt	a4,t1,0x11bee
   11bd2:	4b0d                	li	s6,3
   11bd4:	40fb0b3b          	subw	s6,s6,a5
   11bd8:	1b02                	slli	s6,s6,0x20
   11bda:	020b5b13          	srli	s6,s6,0x20
   11bde:	8542                	mv	a0,a6
   11be0:	865a                	mv	a2,s6
   11be2:	02f00593          	li	a1,47
   11be6:	4ef080ef          	jal	0x1a8d4
   11bea:	01650833          	add	a6,a0,s6
   11bee:	00080023          	sb	zero,0(a6)
   11bf2:	002ac783          	lbu	a5,2(s5)
   11bf6:	e38d                	bnez	a5,0x11c18
   11bf8:	00070697          	auipc	a3,0x70
   11bfc:	e186b683          	ld	a3,-488(a3) # 0x81a10
   11c00:	8756                	mv	a4,s5
   11c02:	000a4783          	lbu	a5,0(s4)
   11c06:	0705                	addi	a4,a4,1
   11c08:	0a05                	addi	s4,s4,1
   11c0a:	078a                	slli	a5,a5,0x2
   11c0c:	97b6                	add	a5,a5,a3
   11c0e:	0007c783          	lbu	a5,0(a5)
   11c12:	fef70fa3          	sb	a5,-1(a4)
   11c16:	f7f5                	bnez	a5,0x11c02
   11c18:	85d6                	mv	a1,s5
   11c1a:	f9840513          	addi	a0,s0,-104
   11c1e:	51f090ef          	jal	0x1b93c
   11c22:	16051a63          	bnez	a0,0x11d96
   11c26:	8556                	mv	a0,s5
   11c28:	07d070ef          	jal	0x194a4
   11c2c:	fa043783          	ld	a5,-96(s0)
   11c30:	4705                	li	a4,1
   11c32:	1ce79e63          	bne	a5,a4,0x11e0e
   11c36:	fb043703          	ld	a4,-80(s0)
   11c3a:	1af71463          	bne	a4,a5,0x11de2
   11c3e:	0a09b783          	ld	a5,160(s3)
   11c42:	f9843583          	ld	a1,-104(s0)
   11c46:	fa843603          	ld	a2,-88(s0)
   11c4a:	6788                	ld	a0,8(a5)
   11c4c:	6f94                	ld	a3,24(a5)
   11c4e:	04078c23          	sb	zero,88(a5)
   11c52:	04078ca3          	sb	zero,89(a5)
   11c56:	04078d23          	sb	zero,90(a5)
   11c5a:	04078da3          	sb	zero,91(a5)
   11c5e:	04078e23          	sb	zero,92(a5)
   11c62:	04078ea3          	sb	zero,93(a5)
   11c66:	04078f23          	sb	zero,94(a5)
   11c6a:	04078fa3          	sb	zero,95(a5)
   11c6e:	e388                	sd	a0,0(a5)
   11c70:	f394                	sd	a3,32(a5)
   11c72:	0a09b783          	ld	a5,160(s3)
   11c76:	06078023          	sb	zero,96(a5)
   11c7a:	060780a3          	sb	zero,97(a5)
   11c7e:	06078123          	sb	zero,98(a5)
   11c82:	060781a3          	sb	zero,99(a5)
   11c86:	06078223          	sb	zero,100(a5)
   11c8a:	060782a3          	sb	zero,101(a5)
   11c8e:	06078323          	sb	zero,102(a5)
   11c92:	060783a3          	sb	zero,103(a5)
   11c96:	0a09b783          	ld	a5,160(s3)
   11c9a:	0a093683          	ld	a3,160(s2)
   11c9e:	06878513          	addi	a0,a5,104
   11ca2:	08a9bc23          	sd	a0,152(s3)
   11ca6:	05868693          	addi	a3,a3,88
   11caa:	f7ac                	sd	a1,104(a5)
   11cac:	f3d0                	sd	a2,160(a5)
   11cae:	08e7a423          	sw	a4,136(a5)
   11cb2:	e3d8                	sd	a4,128(a5)
   11cb4:	ebd4                	sd	a3,144(a5)
   11cb6:	0ce7a023          	sw	a4,192(a5)
   11cba:	73f0                	ld	a2,224(a5)
   11cbc:	45a5                	li	a1,9
   11cbe:	ffcc                	sd	a1,184(a5)
   11cc0:	e7f4                	sd	a3,200(a5)
   11cc2:	0cc9bc23          	sd	a2,216(s3)
   11cc6:	6a06                	ld	s4,64(sp)
   11cc8:	7ae2                	ld	s5,56(sp)
   11cca:	7b42                	ld	s6,48(sp)
   11ccc:	0ce92023          	sw	a4,192(s2)
   11cd0:	a809                	j	0x11ce2
   11cd2:	00070797          	auipc	a5,0x70
   11cd6:	0fe7b783          	ld	a5,254(a5) # 0x81dd0
   11cda:	4759                	li	a4,22
   11cdc:	9792                	add	a5,a5,tp
   11cde:	c398                	sw	a4,0(a5)
   11ce0:	4901                	li	s2,0
   11ce2:	fb843703          	ld	a4,-72(s0)
   11ce6:	609c                	ld	a5,0(s1)
   11ce8:	8fb9                	xor	a5,a5,a4
   11cea:	4701                	li	a4,0
   11cec:	ebf1                	bnez	a5,0x11dc0
   11cee:	70a6                	ld	ra,104(sp)
   11cf0:	7406                	ld	s0,96(sp)
   11cf2:	64e6                	ld	s1,88(sp)
   11cf4:	69a6                	ld	s3,72(sp)
   11cf6:	854a                	mv	a0,s2
   11cf8:	6946                	ld	s2,80(sp)
   11cfa:	6165                	addi	sp,sp,112
   11cfc:	8082                	ret
   11cfe:	e0d2                	sd	s4,64(sp)
   11d00:	24000e93          	li	t4,576
   11d04:	4711                	li	a4,4
   11d06:	4f85                	li	t6,1
   11d08:	bb65                	j	0x11ac0
   11d0a:	080eee93          	ori	t4,t4,128
   11d0e:	8a32                	mv	s4,a2
   11d10:	bbed                	j	0x11b0a
   11d12:	0749a503          	lw	a0,116(s3)
   11d16:	00156513          	ori	a0,a0,1
   11d1a:	06a9aa23          	sw	a0,116(s3)
   11d1e:	b3f5                	j	0x11b0a
   11d20:	0749a503          	lw	a0,116(s3)
   11d24:	00080837          	lui	a6,0x80
   11d28:	010eeeb3          	or	t4,t4,a6
   11d2c:	04056513          	ori	a0,a0,64
   11d30:	06a9aa23          	sw	a0,116(s3)
   11d34:	bbd9                	j	0x11b0a
   11d36:	0749a503          	lw	a0,116(s3)
   11d3a:	00256513          	ori	a0,a0,2
   11d3e:	06a9aa23          	sw	a0,116(s3)
   11d42:	b3e1                	j	0x11b0a
   11d44:	8a32                	mv	s4,a2
   11d46:	b3d1                	j	0x11b0a
   11d48:	da580de3          	beq	a6,t0,0x11b02
   11d4c:	02c00513          	li	a0,44
   11d50:	daa80fe3          	beq	a6,a0,0x11b0e
   11d54:	da081be3          	bnez	a6,0x11b0a
   11d58:	1b600693          	li	a3,438
   11d5c:	01fee633          	or	a2,t4,t6
   11d60:	854e                	mv	a0,s3
   11d62:	9dbff0ef          	jal	0x1173c
   11d66:	892a                	mv	s2,a0
   11d68:	da051de3          	bnez	a0,0x11b22
   11d6c:	6a06                	ld	s4,64(sp)
   11d6e:	bf8d                	j	0x11ce0
   11d70:	e0d2                	sd	s4,64(sp)
   11d72:	4e81                	li	t4,0
   11d74:	4721                	li	a4,8
   11d76:	4f81                	li	t6,0
   11d78:	b3a1                	j	0x11ac0
   11d7a:	6a06                	ld	s4,64(sp)
   11d7c:	b79d                	j	0x11ce2
   11d7e:	02f00713          	li	a4,47
   11d82:	e2e79fe3          	bne	a5,a4,0x11bc0
   11d86:	4709                	li	a4,2
   11d88:	e6e303e3          	beq	t1,a4,0x11bee
   11d8c:	00f80023          	sb	a5,0(a6) # 0x80000
   11d90:	2305                	addiw	t1,t1,1
   11d92:	0805                	addi	a6,a6,1
   11d94:	b535                	j	0x11bc0
   11d96:	854e                	mv	a0,s3
   11d98:	bafff0ef          	jal	0x11946
   11d9c:	00070917          	auipc	s2,0x70
   11da0:	03493903          	ld	s2,52(s2) # 0x81dd0
   11da4:	8556                	mv	a0,s5
   11da6:	6fe070ef          	jal	0x194a4
   11daa:	49d9                	li	s3,22
   11dac:	9912                	add	s2,s2,tp
   11dae:	6a06                	ld	s4,64(sp)
   11db0:	7ae2                	ld	s5,56(sp)
   11db2:	7b42                	ld	s6,48(sp)
   11db4:	01392023          	sw	s3,0(s2)
   11db8:	b725                	j	0x11ce0
   11dba:	8856                	mv	a6,s5
   11dbc:	4785                	li	a5,1
   11dbe:	bd11                	j	0x11bd2
   11dc0:	e0d2                	sd	s4,64(sp)
   11dc2:	fc56                	sd	s5,56(sp)
   11dc4:	f85a                	sd	s6,48(sp)
   11dc6:	7690a0ef          	jal	0x1cd2e
   11dca:	00070917          	auipc	s2,0x70
   11dce:	00693903          	ld	s2,6(s2) # 0x81dd0
   11dd2:	854e                	mv	a0,s3
   11dd4:	004907b3          	add	a5,s2,tp
   11dd8:	0007a983          	lw	s3,0(a5)
   11ddc:	b6bff0ef          	jal	0x11946
   11de0:	b7f1                	j	0x11dac
   11de2:	fb843703          	ld	a4,-72(s0)
   11de6:	609c                	ld	a5,0(s1)
   11de8:	8fb9                	xor	a5,a5,a4
   11dea:	4701                	li	a4,0
   11dec:	ffe9                	bnez	a5,0x11dc6
   11dee:	00041697          	auipc	a3,0x41
   11df2:	dba68693          	addi	a3,a3,-582 # 0x52ba8
   11df6:	14300613          	li	a2,323
   11dfa:	00041597          	auipc	a1,0x41
   11dfe:	d6e58593          	addi	a1,a1,-658 # 0x52b68
   11e02:	00041517          	auipc	a0,0x41
   11e06:	d8e50513          	addi	a0,a0,-626 # 0x52b90
   11e0a:	679140ef          	jal	0x26c82
   11e0e:	fb843703          	ld	a4,-72(s0)
   11e12:	609c                	ld	a5,0(s1)
   11e14:	8fb9                	xor	a5,a5,a4
   11e16:	4701                	li	a4,0
   11e18:	f7dd                	bnez	a5,0x11dc6
   11e1a:	00041697          	auipc	a3,0x41
   11e1e:	d8e68693          	addi	a3,a3,-626 # 0x52ba8
   11e22:	14200613          	li	a2,322
   11e26:	00041597          	auipc	a1,0x41
   11e2a:	d4258593          	addi	a1,a1,-702 # 0x52b68
   11e2e:	00041517          	auipc	a0,0x41
   11e32:	d4a50513          	addi	a0,a0,-694 # 0x52b78
   11e36:	64d140ef          	jal	0x26c82
   11e3a:	1101                	addi	sp,sp,-32
   11e3c:	e822                	sd	s0,16(sp)
   11e3e:	e426                	sd	s1,8(sp)
   11e40:	ec06                	sd	ra,24(sp)
   11e42:	1000                	addi	s0,sp,32
   11e44:	5938                	lw	a4,112(a0)
   11e46:	57fd                	li	a5,-1
   11e48:	84aa                	mv	s1,a0
   11e4a:	04f70463          	beq	a4,a5,0x11e92
   11e4e:	0c052783          	lw	a5,192(a0)
   11e52:	04f05863          	blez	a5,0x11ea2
   11e56:	715c                	ld	a5,160(a0)
   11e58:	6f8c                	ld	a1,24(a5)
   11e5a:	7390                	ld	a2,32(a5)
   11e5c:	8e0d                	sub	a2,a2,a1
   11e5e:	8609                	srai	a2,a2,0x2
   11e60:	0c71e0ef          	jal	0x30726
   11e64:	409c                	lw	a5,0(s1)
   11e66:	0407f793          	andi	a5,a5,64
   11e6a:	e785                	bnez	a5,0x11e92
   11e6c:	e04a                	sd	s2,0(sp)
   11e6e:	0d84b903          	ld	s2,216(s1)
   11e72:	6785                	lui	a5,0x1
   11e74:	0006e717          	auipc	a4,0x6e
   11e78:	f0c70713          	addi	a4,a4,-244 # 0x7fd80
   11e7c:	40e90733          	sub	a4,s2,a4
   11e80:	92f78793          	addi	a5,a5,-1745 # 0x92f
   11e84:	02e7e563          	bltu	a5,a4,0x11eae
   11e88:	08893783          	ld	a5,136(s2)
   11e8c:	8526                	mv	a0,s1
   11e8e:	9782                	jalr	a5
   11e90:	6902                	ld	s2,0(sp)
   11e92:	6442                	ld	s0,16(sp)
   11e94:	60e2                	ld	ra,24(sp)
   11e96:	8526                	mv	a0,s1
   11e98:	64a2                	ld	s1,8(sp)
   11e9a:	4581                	li	a1,0
   11e9c:	6105                	addi	sp,sp,32
   11e9e:	11a0206f          	j	0x13fb8
   11ea2:	710c                	ld	a1,32(a0)
   11ea4:	7510                	ld	a2,40(a0)
   11ea6:	8e0d                	sub	a2,a2,a1
   11ea8:	a73ff0ef          	jal	0x1191a
   11eac:	bf65                	j	0x11e64
   11eae:	c46ff0ef          	jal	0x112f4
   11eb2:	bfd9                	j	0x11e88
   11eb4:	411c                	lw	a5,0(a0)
   11eb6:	0107f713          	andi	a4,a5,16
   11eba:	22071f63          	bnez	a4,0x120f8
   11ebe:	7139                	addi	sp,sp,-64
   11ec0:	f822                	sd	s0,48(sp)
   11ec2:	f426                	sd	s1,40(sp)
   11ec4:	fc06                	sd	ra,56(sp)
   11ec6:	e456                	sd	s5,8(sp)
   11ec8:	0080                	addi	s0,sp,64
   11eca:	0047f713          	andi	a4,a5,4
   11ece:	84aa                	mv	s1,a0
   11ed0:	20071863          	bnez	a4,0x120e0
   11ed4:	6518                	ld	a4,8(a0)
   11ed6:	6914                	ld	a3,16(a0)
   11ed8:	10d76963          	bltu	a4,a3,0x11fea
   11edc:	7d18                	ld	a4,56(a0)
   11ede:	f04a                	sd	s2,32(sp)
   11ee0:	ec4e                	sd	s3,24(sp)
   11ee2:	16070463          	beqz	a4,0x1204a
   11ee6:	2027f793          	andi	a5,a5,514
   11eea:	cfc9                	beqz	a5,0x11f84
   11eec:	e852                	sd	s4,16(sp)
   11eee:	00070a17          	auipc	s4,0x70
   11ef2:	d02a3a03          	ld	s4,-766(s4) # 0x81bf0
   11ef6:	000a3983          	ld	s3,0(s4)
   11efa:	0009a783          	lw	a5,0(s3)
   11efe:	03079713          	slli	a4,a5,0x30
   11f02:	10074963          	bltz	a4,0x12014
   11f06:	0889b503          	ld	a0,136(s3)
   11f0a:	8a022703          	lw	a4,-1888(tp) # 0xfffffffffffff8a0
   11f0e:	8a020913          	addi	s2,tp,-1888 # 0xfffffffffffff8a0
   11f12:	6514                	ld	a3,8(a0)
   11f14:	14070c63          	beqz	a4,0x1206c
   11f18:	18d90b63          	beq	s2,a3,0x120ae
   11f1c:	4705                	li	a4,1
   11f1e:	140527af          	lr.w.aq	a5,(a0)
   11f22:	e781                	bnez	a5,0x11f2a
   11f24:	18e526af          	sc.w	a3,a4,(a0)
   11f28:	fafd                	bnez	a3,0x11f1e
   11f2a:	2781                	sext.w	a5,a5
   11f2c:	1a079763          	bnez	a5,0x120da
   11f30:	000a3703          	ld	a4,0(s4)
   11f34:	0889b503          	ld	a0,136(s3)
   11f38:	28000693          	li	a3,640
   11f3c:	431c                	lw	a5,0(a4)
   11f3e:	01253423          	sd	s2,8(a0)
   11f42:	0006e917          	auipc	s2,0x6e
   11f46:	e3e90913          	addi	s2,s2,-450 # 0x7fd80
   11f4a:	2887f793          	andi	a5,a5,648
   11f4e:	0cd78a63          	beq	a5,a3,0x12022
   11f52:	0009a783          	lw	a5,0(s3)
   11f56:	03079713          	slli	a4,a5,0x30
   11f5a:	02074463          	bltz	a4,0x11f82
   11f5e:	8a022703          	lw	a4,-1888(tp) # 0xfffffffffffff8a0
   11f62:	0889b503          	ld	a0,136(s3)
   11f66:	4154                	lw	a3,4(a0)
   11f68:	12070363          	beqz	a4,0x1208e
   11f6c:	12069863          	bnez	a3,0x1209c
   11f70:	00053423          	sd	zero,8(a0)
   11f74:	87b6                	mv	a5,a3
   11f76:	0af527af          	amoswap.w.rl	a5,a5,(a0)
   11f7a:	4705                	li	a4,1
   11f7c:	2781                	sext.w	a5,a5
   11f7e:	14f74763          	blt	a4,a5,0x120cc
   11f82:	6a42                	ld	s4,16(sp)
   11f84:	0006e917          	auipc	s2,0x6e
   11f88:	dfc90913          	addi	s2,s2,-516 # 0x7fd80
   11f8c:	8526                	mv	a0,s1
   11f8e:	62c010ef          	jal	0x135ba
   11f92:	7c8c                	ld	a1,56(s1)
   11f94:	0d84b983          	ld	s3,216(s1)
   11f98:	6785                	lui	a5,0x1
   11f9a:	e48c                	sd	a1,8(s1)
   11f9c:	ec8c                	sd	a1,24(s1)
   11f9e:	e88c                	sd	a1,16(s1)
   11fa0:	f88c                	sd	a1,48(s1)
   11fa2:	f48c                	sd	a1,40(s1)
   11fa4:	f08c                	sd	a1,32(s1)
   11fa6:	41298933          	sub	s2,s3,s2
   11faa:	92f78793          	addi	a5,a5,-1745 # 0x92f
   11fae:	0f27ec63          	bltu	a5,s2,0x120a6
   11fb2:	60b0                	ld	a2,64(s1)
   11fb4:	0709b783          	ld	a5,112(s3)
   11fb8:	8526                	mv	a0,s1
   11fba:	8e0d                	sub	a2,a2,a1
   11fbc:	9782                	jalr	a5
   11fbe:	02a05e63          	blez	a0,0x11ffa
   11fc2:	689c                	ld	a5,16(s1)
   11fc4:	68d8                	ld	a4,144(s1)
   11fc6:	56fd                	li	a3,-1
   11fc8:	97aa                	add	a5,a5,a0
   11fca:	e89c                	sd	a5,16(s1)
   11fcc:	00d70463          	beq	a4,a3,0x11fd4
   11fd0:	972a                	add	a4,a4,a0
   11fd2:	e8d8                	sd	a4,144(s1)
   11fd4:	649c                	ld	a5,8(s1)
   11fd6:	7902                	ld	s2,32(sp)
   11fd8:	69e2                	ld	s3,24(sp)
   11fda:	0007c503          	lbu	a0,0(a5)
   11fde:	70e2                	ld	ra,56(sp)
   11fe0:	7442                	ld	s0,48(sp)
   11fe2:	74a2                	ld	s1,40(sp)
   11fe4:	6aa2                	ld	s5,8(sp)
   11fe6:	6121                	addi	sp,sp,64
   11fe8:	8082                	ret
   11fea:	70e2                	ld	ra,56(sp)
   11fec:	7442                	ld	s0,48(sp)
   11fee:	00074503          	lbu	a0,0(a4)
   11ff2:	74a2                	ld	s1,40(sp)
   11ff4:	6aa2                	ld	s5,8(sp)
   11ff6:	6121                	addi	sp,sp,64
   11ff8:	8082                	ret
   11ffa:	409c                	lw	a5,0(s1)
   11ffc:	0207e713          	ori	a4,a5,32
   12000:	e119                	bnez	a0,0x12006
   12002:	0107e713          	ori	a4,a5,16
   12006:	57fd                	li	a5,-1
   12008:	7902                	ld	s2,32(sp)
   1200a:	69e2                	ld	s3,24(sp)
   1200c:	c098                	sw	a4,0(s1)
   1200e:	e8dc                	sd	a5,144(s1)
   12010:	557d                	li	a0,-1
   12012:	b7f1                	j	0x11fde
   12014:	2887f793          	andi	a5,a5,648
   12018:	28000713          	li	a4,640
   1201c:	f6e793e3          	bne	a5,a4,0x11f82
   12020:	874e                	mv	a4,s3
   12022:	0d873a83          	ld	s5,216(a4)
   12026:	0006e917          	auipc	s2,0x6e
   1202a:	d5a90913          	addi	s2,s2,-678 # 0x7fd80
   1202e:	6785                	lui	a5,0x1
   12030:	412a8733          	sub	a4,s5,s2
   12034:	92f78793          	addi	a5,a5,-1745 # 0x92f
   12038:	08e7ee63          	bltu	a5,a4,0x120d4
   1203c:	018ab783          	ld	a5,24(s5)
   12040:	000a3503          	ld	a0,0(s4)
   12044:	55fd                	li	a1,-1
   12046:	9782                	jalr	a5
   12048:	b729                	j	0x11f52
   1204a:	6528                	ld	a0,72(a0)
   1204c:	c519                	beqz	a0,0x1205a
   1204e:	456070ef          	jal	0x194a4
   12052:	409c                	lw	a5,0(s1)
   12054:	eff7f793          	andi	a5,a5,-257
   12058:	c09c                	sw	a5,0(s1)
   1205a:	8526                	mv	a0,s1
   1205c:	0c9010ef          	jal	0x13924
   12060:	409c                	lw	a5,0(s1)
   12062:	2027f793          	andi	a5,a5,514
   12066:	e80793e3          	bnez	a5,0x11eec
   1206a:	bf29                	j	0x11f84
   1206c:	ea0696e3          	bnez	a3,0x11f18
   12070:	4705                	li	a4,1
   12072:	c118                	sw	a4,0(a0)
   12074:	01253423          	sd	s2,8(a0)
   12078:	2887f793          	andi	a5,a5,648
   1207c:	28000713          	li	a4,640
   12080:	fae780e3          	beq	a5,a4,0x12020
   12084:	4154                	lw	a3,4(a0)
   12086:	0006e917          	auipc	s2,0x6e
   1208a:	cfa90913          	addi	s2,s2,-774 # 0x7fd80
   1208e:	e699                	bnez	a3,0x1209c
   12090:	6a42                	ld	s4,16(sp)
   12092:	00053423          	sd	zero,8(a0)
   12096:	00052023          	sw	zero,0(a0)
   1209a:	bdcd                	j	0x11f8c
   1209c:	fff6879b          	addiw	a5,a3,-1
   120a0:	6a42                	ld	s4,16(sp)
   120a2:	c15c                	sw	a5,4(a0)
   120a4:	b5e5                	j	0x11f8c
   120a6:	a4eff0ef          	jal	0x112f4
   120aa:	7c8c                	ld	a1,56(s1)
   120ac:	b719                	j	0x11fb2
   120ae:	4154                	lw	a3,4(a0)
   120b0:	2887f793          	andi	a5,a5,648
   120b4:	28000613          	li	a2,640
   120b8:	2685                	addiw	a3,a3,1
   120ba:	c154                	sw	a3,4(a0)
   120bc:	0006e917          	auipc	s2,0x6e
   120c0:	cc490913          	addi	s2,s2,-828 # 0x7fd80
   120c4:	eac791e3          	bne	a5,a2,0x11f66
   120c8:	874e                	mv	a4,s3
   120ca:	bfa1                	j	0x12022
   120cc:	3c2030ef          	jal	0x1548e
   120d0:	6a42                	ld	s4,16(sp)
   120d2:	bd6d                	j	0x11f8c
   120d4:	a20ff0ef          	jal	0x112f4
   120d8:	b795                	j	0x1203c
   120da:	30e030ef          	jal	0x153e8
   120de:	bd89                	j	0x11f30
   120e0:	0207e793          	ori	a5,a5,32
   120e4:	c11c                	sw	a5,0(a0)
   120e6:	00070797          	auipc	a5,0x70
   120ea:	cea7b783          	ld	a5,-790(a5) # 0x81dd0
   120ee:	4725                	li	a4,9
   120f0:	557d                	li	a0,-1
   120f2:	9792                	add	a5,a5,tp
   120f4:	c398                	sw	a4,0(a5)
   120f6:	b5e5                	j	0x11fde
   120f8:	557d                	li	a0,-1
   120fa:	8082                	ret
   120fc:	0009a783          	lw	a5,0(s3)
   12100:	84aa                	mv	s1,a0
   12102:	03079713          	slli	a4,a5,0x30
   12106:	00074d63          	bltz	a4,0x12120
   1210a:	0889b503          	ld	a0,136(s3)
   1210e:	8a022703          	lw	a4,-1888(tp) # 0xfffffffffffff8a0
   12112:	4154                	lw	a3,4(a0)
   12114:	eb09                	bnez	a4,0x12126
   12116:	e68d                	bnez	a3,0x12140
   12118:	00053423          	sd	zero,8(a0)
   1211c:	00052023          	sw	zero,0(a0)
   12120:	8526                	mv	a0,s1
   12122:	62e3d0ef          	jal	0x4f750
   12126:	ee89                	bnez	a3,0x12140
   12128:	00053423          	sd	zero,8(a0)
   1212c:	87b6                	mv	a5,a3
   1212e:	0af527af          	amoswap.w.rl	a5,a5,(a0)
   12132:	4705                	li	a4,1
   12134:	2781                	sext.w	a5,a5
   12136:	fef755e3          	bge	a4,a5,0x12120
   1213a:	354030ef          	jal	0x1548e
   1213e:	b7cd                	j	0x12120
   12140:	fff6879b          	addiw	a5,a3,-1
   12144:	c15c                	sw	a5,4(a0)
   12146:	bfe9                	j	0x12120
   12148:	651c                	ld	a5,8(a0)
   1214a:	6918                	ld	a4,16(a0)
   1214c:	00e7f563          	bgeu	a5,a4,0x12156
   12150:	0007c503          	lbu	a0,0(a5)
   12154:	8082                	ret
   12156:	1101                	addi	sp,sp,-32
   12158:	e822                	sd	s0,16(sp)
   1215a:	e426                	sd	s1,8(sp)
   1215c:	ec06                	sd	ra,24(sp)
   1215e:	1000                	addi	s0,sp,32
   12160:	84aa                	mv	s1,a0
   12162:	aacff0ef          	jal	0x1140e
   12166:	ed01                	bnez	a0,0x1217e
   12168:	649c                	ld	a5,8(s1)
   1216a:	6898                	ld	a4,16(s1)
   1216c:	04e7f063          	bgeu	a5,a4,0x121ac
   12170:	0007c503          	lbu	a0,0(a5)
   12174:	60e2                	ld	ra,24(sp)
   12176:	6442                	ld	s0,16(sp)
   12178:	64a2                	ld	s1,8(sp)
   1217a:	6105                	addi	sp,sp,32
   1217c:	8082                	ret
   1217e:	e04a                	sd	s2,0(sp)
   12180:	0d84b903          	ld	s2,216(s1)
   12184:	6785                	lui	a5,0x1
   12186:	0006e717          	auipc	a4,0x6e
   1218a:	bfa70713          	addi	a4,a4,-1030 # 0x7fd80
   1218e:	40e90733          	sub	a4,s2,a4
   12192:	92f78793          	addi	a5,a5,-1745 # 0x92f
   12196:	02e7e163          	bltu	a5,a4,0x121b8
   1219a:	6442                	ld	s0,16(sp)
   1219c:	02093783          	ld	a5,32(s2)
   121a0:	60e2                	ld	ra,24(sp)
   121a2:	6902                	ld	s2,0(sp)
   121a4:	8526                	mv	a0,s1
   121a6:	64a2                	ld	s1,8(sp)
   121a8:	6105                	addi	sp,sp,32
   121aa:	8782                	jr	a5
   121ac:	409c                	lw	a5,0(s1)
   121ae:	557d                	li	a0,-1
   121b0:	0107e793          	ori	a5,a5,16
   121b4:	c09c                	sw	a5,0(s1)
   121b6:	bf7d                	j	0x12174
   121b8:	93cff0ef          	jal	0x112f4
   121bc:	bff9                	j	0x1219a
   121be:	1101                	addi	sp,sp,-32
   121c0:	e822                	sd	s0,16(sp)
   121c2:	e426                	sd	s1,8(sp)
   121c4:	e04a                	sd	s2,0(sp)
   121c6:	ec06                	sd	ra,24(sp)
   121c8:	1000                	addi	s0,sp,32
   121ca:	84aa                	mv	s1,a0
   121cc:	bc8ff0ef          	jal	0x11594
   121d0:	0d84b903          	ld	s2,216(s1)
   121d4:	6785                	lui	a5,0x1
   121d6:	0006e717          	auipc	a4,0x6e
   121da:	baa70713          	addi	a4,a4,-1110 # 0x7fd80
   121de:	40e90733          	sub	a4,s2,a4
   121e2:	92f78793          	addi	a5,a5,-1745 # 0x92f
   121e6:	00e7eb63          	bltu	a5,a4,0x121fc
   121ea:	6442                	ld	s0,16(sp)
   121ec:	02093783          	ld	a5,32(s2)
   121f0:	60e2                	ld	ra,24(sp)
   121f2:	6902                	ld	s2,0(sp)
   121f4:	8526                	mv	a0,s1
   121f6:	64a2                	ld	s1,8(sp)
   121f8:	6105                	addi	sp,sp,32
   121fa:	8782                	jr	a5
   121fc:	8f8ff0ef          	jal	0x112f4
   12200:	b7ed                	j	0x121ea
   12202:	7179                	addi	sp,sp,-48
   12204:	f022                	sd	s0,32(sp)
   12206:	ec26                	sd	s1,24(sp)
   12208:	f406                	sd	ra,40(sp)
   1220a:	1800                	addi	s0,sp,48
   1220c:	411c                	lw	a5,0(a0)
   1220e:	84aa                	mv	s1,a0
   12210:	0087f713          	andi	a4,a5,8
   12214:	12071a63          	bnez	a4,0x12348
   12218:	e84a                	sd	s2,16(sp)
   1221a:	e44e                	sd	s3,8(sp)
   1221c:	03479693          	slli	a3,a5,0x34
   12220:	7118                	ld	a4,32(a0)
   12222:	892e                	mv	s2,a1
   12224:	0406d263          	bgez	a3,0x12268
   12228:	c37d                	beqz	a4,0x1230e
   1222a:	7510                	ld	a2,40(a0)
   1222c:	59fd                	li	s3,-1
   1222e:	07390b63          	beq	s2,s3,0x122a4
   12232:	60bc                	ld	a5,64(s1)
   12234:	0ac78063          	beq	a5,a2,0x122d4
   12238:	00160793          	addi	a5,a2,1
   1223c:	f49c                	sd	a5,40(s1)
   1223e:	01260023          	sb	s2,0(a2)
   12242:	409c                	lw	a5,0(s1)
   12244:	0027f713          	andi	a4,a5,2
   12248:	eb2d                	bnez	a4,0x122ba
   1224a:	2007f793          	andi	a5,a5,512
   1224e:	c781                	beqz	a5,0x12256
   12250:	47a9                	li	a5,10
   12252:	06f90463          	beq	s2,a5,0x122ba
   12256:	0ff97513          	zext.b	a0,s2
   1225a:	69a2                	ld	s3,8(sp)
   1225c:	6942                	ld	s2,16(sp)
   1225e:	70a2                	ld	ra,40(sp)
   12260:	7402                	ld	s0,32(sp)
   12262:	64e2                	ld	s1,24(sp)
   12264:	6145                	addi	sp,sp,48
   12266:	8082                	ret
   12268:	c35d                	beqz	a4,0x1230e
   1226a:	6510                	ld	a2,8(a0)
   1226c:	1007f713          	andi	a4,a5,256
   12270:	eb45                	bnez	a4,0x12320
   12272:	60ac                	ld	a1,64(s1)
   12274:	08c58063          	beq	a1,a2,0x122f4
   12278:	6894                	ld	a3,16(s1)
   1227a:	6705                	lui	a4,0x1
   1227c:	80070713          	addi	a4,a4,-2048 # 0x800
   12280:	0c04a503          	lw	a0,192(s1)
   12284:	8f5d                	or	a4,a4,a5
   12286:	f490                	sd	a2,40(s1)
   12288:	f090                	sd	a2,32(s1)
   1228a:	f88c                	sd	a1,48(s1)
   1228c:	e494                	sd	a3,8(s1)
   1228e:	ec94                	sd	a3,24(s1)
   12290:	c098                	sw	a4,0(s1)
   12292:	f8a04de3          	bgtz	a0,0x1222c
   12296:	2027f793          	andi	a5,a5,514
   1229a:	dbc9                	beqz	a5,0x1222c
   1229c:	f890                	sd	a2,48(s1)
   1229e:	59fd                	li	s3,-1
   122a0:	f93919e3          	bne	s2,s3,0x12232
   122a4:	708c                	ld	a1,32(s1)
   122a6:	7402                	ld	s0,32(sp)
   122a8:	6942                	ld	s2,16(sp)
   122aa:	69a2                	ld	s3,8(sp)
   122ac:	70a2                	ld	ra,40(sp)
   122ae:	8526                	mv	a0,s1
   122b0:	64e2                	ld	s1,24(sp)
   122b2:	8e0d                	sub	a2,a2,a1
   122b4:	6145                	addi	sp,sp,48
   122b6:	e64ff06f          	j	0x1191a
   122ba:	708c                	ld	a1,32(s1)
   122bc:	7490                	ld	a2,40(s1)
   122be:	8526                	mv	a0,s1
   122c0:	8e0d                	sub	a2,a2,a1
   122c2:	e58ff0ef          	jal	0x1191a
   122c6:	57fd                	li	a5,-1
   122c8:	f8f517e3          	bne	a0,a5,0x12256
   122cc:	6942                	ld	s2,16(sp)
   122ce:	69a2                	ld	s3,8(sp)
   122d0:	557d                	li	a0,-1
   122d2:	b771                	j	0x1225e
   122d4:	0c04a783          	lw	a5,192(s1)
   122d8:	02f05263          	blez	a5,0x122fc
   122dc:	70dc                	ld	a5,160(s1)
   122de:	8526                	mv	a0,s1
   122e0:	6f8c                	ld	a1,24(a5)
   122e2:	7390                	ld	a2,32(a5)
   122e4:	8e0d                	sub	a2,a2,a1
   122e6:	8609                	srai	a2,a2,0x2
   122e8:	43e1e0ef          	jal	0x30726
   122ec:	ff3500e3          	beq	a0,s3,0x122cc
   122f0:	7490                	ld	a2,40(s1)
   122f2:	b799                	j	0x12238
   122f4:	7c90                	ld	a2,56(s1)
   122f6:	e890                	sd	a2,16(s1)
   122f8:	86b2                	mv	a3,a2
   122fa:	b741                	j	0x1227a
   122fc:	708c                	ld	a1,32(s1)
   122fe:	8526                	mv	a0,s1
   12300:	8e0d                	sub	a2,a2,a1
   12302:	e18ff0ef          	jal	0x1191a
   12306:	fd3503e3          	beq	a0,s3,0x122cc
   1230a:	7490                	ld	a2,40(s1)
   1230c:	b735                	j	0x12238
   1230e:	8526                	mv	a0,s1
   12310:	614010ef          	jal	0x13924
   12314:	7c90                	ld	a2,56(s1)
   12316:	409c                	lw	a5,0(s1)
   12318:	ec90                	sd	a2,24(s1)
   1231a:	e490                	sd	a2,8(s1)
   1231c:	e890                	sd	a2,16(s1)
   1231e:	b7b9                	j	0x1226c
   12320:	0104b983          	ld	s3,16(s1)
   12324:	8526                	mv	a0,s1
   12326:	40c989b3          	sub	s3,s3,a2
   1232a:	314010ef          	jal	0x1363e
   1232e:	6c90                	ld	a2,24(s1)
   12330:	7c9c                	ld	a5,56(s1)
   12332:	40f606b3          	sub	a3,a2,a5
   12336:	40c78733          	sub	a4,a5,a2
   1233a:	00d9f463          	bgeu	s3,a3,0x12342
   1233e:	41300733          	neg	a4,s3
   12342:	409c                	lw	a5,0(s1)
   12344:	963a                	add	a2,a2,a4
   12346:	b735                	j	0x12272
   12348:	0207e793          	ori	a5,a5,32
   1234c:	c11c                	sw	a5,0(a0)
   1234e:	00070797          	auipc	a5,0x70
   12352:	a827b783          	ld	a5,-1406(a5) # 0x81dd0
   12356:	4725                	li	a4,9
   12358:	557d                	li	a0,-1
   1235a:	9792                	add	a5,a5,tp
   1235c:	c398                	sw	a4,0(a5)
   1235e:	b701                	j	0x1225e
   12360:	7179                	addi	sp,sp,-48
   12362:	f022                	sd	s0,32(sp)
   12364:	ec26                	sd	s1,24(sp)
   12366:	f406                	sd	ra,40(sp)
   12368:	1800                	addi	s0,sp,48
   1236a:	7510                	ld	a2,40(a0)
   1236c:	710c                	ld	a1,32(a0)
   1236e:	84aa                	mv	s1,a0
   12370:	00c5fe63          	bgeu	a1,a2,0x1238c
   12374:	0c052783          	lw	a5,192(a0)
   12378:	06f05163          	blez	a5,0x123da
   1237c:	715c                	ld	a5,160(a0)
   1237e:	6f8c                	ld	a1,24(a5)
   12380:	7390                	ld	a2,32(a5)
   12382:	8e0d                	sub	a2,a2,a1
   12384:	8609                	srai	a2,a2,0x2
   12386:	3a01e0ef          	jal	0x30726
   1238a:	ed21                	bnez	a0,0x123e2
   1238c:	6498                	ld	a4,8(s1)
   1238e:	689c                	ld	a5,16(s1)
   12390:	40f705b3          	sub	a1,a4,a5
   12394:	02f70b63          	beq	a4,a5,0x123ca
   12398:	e84a                	sd	s2,16(sp)
   1239a:	0d84b903          	ld	s2,216(s1)
   1239e:	6785                	lui	a5,0x1
   123a0:	0006e717          	auipc	a4,0x6e
   123a4:	9e070713          	addi	a4,a4,-1568 # 0x7fd80
   123a8:	40e90733          	sub	a4,s2,a4
   123ac:	92f78793          	addi	a5,a5,-1745 # 0x92f
   123b0:	04e7e763          	bltu	a5,a4,0x123fe
   123b4:	08093783          	ld	a5,128(s2)
   123b8:	4605                	li	a2,1
   123ba:	8526                	mv	a0,s1
   123bc:	9782                	jalr	a5
   123be:	57fd                	li	a5,-1
   123c0:	02f50363          	beq	a0,a5,0x123e6
   123c4:	649c                	ld	a5,8(s1)
   123c6:	6942                	ld	s2,16(sp)
   123c8:	e89c                	sd	a5,16(s1)
   123ca:	57fd                	li	a5,-1
   123cc:	e8dc                	sd	a5,144(s1)
   123ce:	4501                	li	a0,0
   123d0:	70a2                	ld	ra,40(sp)
   123d2:	7402                	ld	s0,32(sp)
   123d4:	64e2                	ld	s1,24(sp)
   123d6:	6145                	addi	sp,sp,48
   123d8:	8082                	ret
   123da:	8e0d                	sub	a2,a2,a1
   123dc:	d3eff0ef          	jal	0x1191a
   123e0:	d555                	beqz	a0,0x1238c
   123e2:	557d                	li	a0,-1
   123e4:	b7f5                	j	0x123d0
   123e6:	00070797          	auipc	a5,0x70
   123ea:	9ea7b783          	ld	a5,-1558(a5) # 0x81dd0
   123ee:	4775                	li	a4,29
   123f0:	6942                	ld	s2,16(sp)
   123f2:	9792                	add	a5,a5,tp
   123f4:	439c                	lw	a5,0(a5)
   123f6:	fce78ae3          	beq	a5,a4,0x123ca
   123fa:	557d                	li	a0,-1
   123fc:	bfd1                	j	0x123d0
   123fe:	fcb43c23          	sd	a1,-40(s0)
   12402:	ef3fe0ef          	jal	0x112f4
   12406:	fd843583          	ld	a1,-40(s0)
   1240a:	b76d                	j	0x123b4
   1240c:	1101                	addi	sp,sp,-32
   1240e:	e822                	sd	s0,16(sp)
   12410:	e426                	sd	s1,8(sp)
   12412:	ec06                	sd	ra,24(sp)
   12414:	1000                	addi	s0,sp,32
   12416:	651c                	ld	a5,8(a0)
   12418:	7d0c                	ld	a1,56(a0)
   1241a:	6918                	ld	a4,16(a0)
   1241c:	84aa                	mv	s1,a0
   1241e:	40b785b3          	sub	a1,a5,a1
   12422:	00e78c63          	beq	a5,a4,0x1243a
   12426:	5928                	lw	a0,112(a0)
   12428:	4601                	li	a2,0
   1242a:	700090ef          	jal	0x1bb2a
   1242e:	649c                	ld	a5,8(s1)
   12430:	7c98                	ld	a4,56(s1)
   12432:	85aa                	mv	a1,a0
   12434:	8f99                	sub	a5,a5,a4
   12436:	00a79c63          	bne	a5,a0,0x1244e
   1243a:	6c9c                	ld	a5,24(s1)
   1243c:	e8cc                	sd	a1,144(s1)
   1243e:	4501                	li	a0,0
   12440:	e49c                	sd	a5,8(s1)
   12442:	e89c                	sd	a5,16(s1)
   12444:	60e2                	ld	ra,24(sp)
   12446:	6442                	ld	s0,16(sp)
   12448:	64a2                	ld	s1,8(sp)
   1244a:	6105                	addi	sp,sp,32
   1244c:	8082                	ret
   1244e:	409c                	lw	a5,0(s1)
   12450:	557d                	li	a0,-1
   12452:	0207e793          	ori	a5,a5,32
   12456:	c09c                	sw	a5,0(s1)
   12458:	b7f5                	j	0x12444
   1245a:	7151                	addi	sp,sp,-240
   1245c:	f1a2                	sd	s0,224(sp)
   1245e:	eda6                	sd	s1,216(sp)
   12460:	e1d2                	sd	s4,192(sp)
   12462:	1980                	addi	s0,sp,240
   12464:	f586                	sd	ra,232(sp)
   12466:	e9ca                	sd	s2,208(sp)
   12468:	0006fa17          	auipc	s4,0x6f
   1246c:	7a8a3a03          	ld	s4,1960(s4) # 0x81c10
   12470:	000a3783          	ld	a5,0(s4)
   12474:	faf43423          	sd	a5,-88(s0)
   12478:	4781                	li	a5,0
   1247a:	84aa                	mv	s1,a0
   1247c:	1e068d63          	beqz	a3,0x12676
   12480:	e5ce                	sd	s3,200(sp)
   12482:	6914                	ld	a3,16(a0)
   12484:	89b2                	mv	s3,a2
   12486:	6d10                	ld	a2,24(a0)
   12488:	f95a                	sd	s6,176(sp)
   1248a:	7118                	ld	a4,32(a0)
   1248c:	751c                	ld	a5,40(a0)
   1248e:	892e                	mv	s2,a1
   12490:	4b01                	li	s6,0
   12492:	12d60263          	beq	a2,a3,0x125b6
   12496:	10f76763          	bltu	a4,a5,0x125a4
   1249a:	409c                	lw	a5,0(s1)
   1249c:	03479713          	slli	a4,a5,0x34
   124a0:	10074263          	bltz	a4,0x125a4
   124a4:	7c9c                	ld	a5,56(s1)
   124a6:	fd56                	sd	s5,184(sp)
   124a8:	1a078463          	beqz	a5,0x12650
   124ac:	4785                	li	a5,1
   124ae:	16f98c63          	beq	s3,a5,0x12626
   124b2:	4789                	li	a5,2
   124b4:	04f99363          	bne	s3,a5,0x124fa
   124b8:	f55e                	sd	s7,168(sp)
   124ba:	0d84bb83          	ld	s7,216(s1)
   124be:	0006ea97          	auipc	s5,0x6e
   124c2:	8c2a8a93          	addi	s5,s5,-1854 # 0x7fd80
   124c6:	6785                	lui	a5,0x1
   124c8:	415b8733          	sub	a4,s7,s5
   124cc:	92f78793          	addi	a5,a5,-1745 # 0x92f
   124d0:	30e7ec63          	bltu	a5,a4,0x127e8
   124d4:	090bb783          	ld	a5,144(s7)
   124d8:	f2840593          	addi	a1,s0,-216
   124dc:	8526                	mv	a0,s1
   124de:	9782                	jalr	a5
   124e0:	e165                	bnez	a0,0x125c0
   124e2:	f3842783          	lw	a5,-200(s0)
   124e6:	66bd                	lui	a3,0xf
   124e8:	6721                	lui	a4,0x8
   124ea:	8ff5                	and	a5,a5,a3
   124ec:	0ce79a63          	bne	a5,a4,0x125c0
   124f0:	f5843783          	ld	a5,-168(s0)
   124f4:	7baa                	ld	s7,168(sp)
   124f6:	4981                	li	s3,0
   124f8:	993e                	add	s2,s2,a5
   124fa:	8526                	mv	a0,s1
   124fc:	142010ef          	jal	0x1363e
   12500:	68cc                	ld	a1,144(s1)
   12502:	57fd                	li	a5,-1
   12504:	1af58563          	beq	a1,a5,0x126ae
   12508:	6c98                	ld	a4,24(s1)
   1250a:	409c                	lw	a5,0(s1)
   1250c:	cf09                	beqz	a4,0x12526
   1250e:	1007f713          	andi	a4,a5,256
   12512:	eb11                	bnez	a4,0x12526
   12514:	7c94                	ld	a3,56(s1)
   12516:	6898                	ld	a4,16(s1)
   12518:	8f15                	sub	a4,a4,a3
   1251a:	40e58733          	sub	a4,a1,a4
   1251e:	00e94463          	blt	s2,a4,0x12526
   12522:	26b94563          	blt	s2,a1,0x1278c
   12526:	8b91                	andi	a5,a5,4
   12528:	0006ea97          	auipc	s5,0x6e
   1252c:	858a8a93          	addi	s5,s5,-1960 # 0x7fd80
   12530:	ebc9                	bnez	a5,0x125c2
   12532:	7c98                	ld	a4,56(s1)
   12534:	60bc                	ld	a5,64(s1)
   12536:	f55e                	sd	s7,168(sp)
   12538:	40f705b3          	sub	a1,a4,a5
   1253c:	0125f5b3          	and	a1,a1,s2
   12540:	40b909b3          	sub	s3,s2,a1
   12544:	8f99                	sub	a5,a5,a4
   12546:	1737c663          	blt	a5,s3,0x126b2
   1254a:	0d84bb83          	ld	s7,216(s1)
   1254e:	6785                	lui	a5,0x1
   12550:	92f78793          	addi	a5,a5,-1745 # 0x92f
   12554:	415b8733          	sub	a4,s7,s5
   12558:	28e7e163          	bltu	a5,a4,0x127da
   1255c:	080bb783          	ld	a5,128(s7)
   12560:	4601                	li	a2,0
   12562:	8526                	mv	a0,s1
   12564:	9782                	jalr	a5
   12566:	8baa                	mv	s7,a0
   12568:	28054c63          	bltz	a0,0x12800
   1256c:	14098663          	beqz	s3,0x126b8
   12570:	f162                	sd	s8,160(sp)
   12572:	0d84bc03          	ld	s8,216(s1)
   12576:	6785                	lui	a5,0x1
   12578:	92f78793          	addi	a5,a5,-1745 # 0x92f
   1257c:	415c0733          	sub	a4,s8,s5
   12580:	26e7e763          	bltu	a5,a4,0x127ee
   12584:	070c3783          	ld	a5,112(s8)
   12588:	7c8c                	ld	a1,56(s1)
   1258a:	864e                	mv	a2,s3
   1258c:	000b1463          	bnez	s6,0x12594
   12590:	60b0                	ld	a2,64(s1)
   12592:	8e0d                	sub	a2,a2,a1
   12594:	8526                	mv	a0,s1
   12596:	9782                	jalr	a5
   12598:	87aa                	mv	a5,a0
   1259a:	1d354763          	blt	a0,s3,0x12768
   1259e:	7c0a                	ld	s8,160(sp)
   125a0:	9baa                	add	s7,s7,a0
   125a2:	aa21                	j	0x126ba
   125a4:	8526                	mv	a0,s1
   125a6:	014010ef          	jal	0x135ba
   125aa:	ee050de3          	beqz	a0,0x124a4
   125ae:	69ae                	ld	s3,200(sp)
   125b0:	7b4a                	ld	s6,176(sp)
   125b2:	557d                	li	a0,-1
   125b4:	a891                	j	0x12608
   125b6:	40f70b33          	sub	s6,a4,a5
   125ba:	001b3b13          	seqz	s6,s6
   125be:	bde1                	j	0x12496
   125c0:	7baa                	ld	s7,168(sp)
   125c2:	8526                	mv	a0,s1
   125c4:	3e4020ef          	jal	0x149a8
   125c8:	0d84bb03          	ld	s6,216(s1)
   125cc:	6705                	lui	a4,0x1
   125ce:	92f70713          	addi	a4,a4,-1745 # 0x92f
   125d2:	415b07b3          	sub	a5,s6,s5
   125d6:	1ef76f63          	bltu	a4,a5,0x127d4
   125da:	080b3783          	ld	a5,128(s6)
   125de:	864e                	mv	a2,s3
   125e0:	85ca                	mv	a1,s2
   125e2:	8526                	mv	a0,s1
   125e4:	9782                	jalr	a5
   125e6:	57fd                	li	a5,-1
   125e8:	10f50063          	beq	a0,a5,0x126e8
   125ec:	4098                	lw	a4,0(s1)
   125ee:	7c9c                	ld	a5,56(s1)
   125f0:	69ae                	ld	s3,200(sp)
   125f2:	7aea                	ld	s5,184(sp)
   125f4:	7b4a                	ld	s6,176(sp)
   125f6:	9b3d                	andi	a4,a4,-17
   125f8:	e8c8                	sd	a0,144(s1)
   125fa:	c098                	sw	a4,0(s1)
   125fc:	ec9c                	sd	a5,24(s1)
   125fe:	e49c                	sd	a5,8(s1)
   12600:	e89c                	sd	a5,16(s1)
   12602:	f49c                	sd	a5,40(s1)
   12604:	f09c                	sd	a5,32(s1)
   12606:	f89c                	sd	a5,48(s1)
   12608:	fa843703          	ld	a4,-88(s0)
   1260c:	000a3783          	ld	a5,0(s4)
   12610:	8fb9                	xor	a5,a5,a4
   12612:	4701                	li	a4,0
   12614:	20079463          	bnez	a5,0x1281c
   12618:	70ae                	ld	ra,232(sp)
   1261a:	740e                	ld	s0,224(sp)
   1261c:	64ee                	ld	s1,216(sp)
   1261e:	694e                	ld	s2,208(sp)
   12620:	6a0e                	ld	s4,192(sp)
   12622:	616d                	addi	sp,sp,240
   12624:	8082                	ret
   12626:	689c                	ld	a5,16(s1)
   12628:	6490                	ld	a2,8(s1)
   1262a:	68d8                	ld	a4,144(s1)
   1262c:	56fd                	li	a3,-1
   1262e:	8f91                	sub	a5,a5,a2
   12630:	40f90933          	sub	s2,s2,a5
   12634:	14d70363          	beq	a4,a3,0x1277a
   12638:	993a                	add	s2,s2,a4
   1263a:	1c094963          	bltz	s2,0x1280c
   1263e:	8526                	mv	a0,s1
   12640:	7ff000ef          	jal	0x1363e
   12644:	68cc                	ld	a1,144(s1)
   12646:	57fd                	li	a5,-1
   12648:	4981                	li	s3,0
   1264a:	eaf59fe3          	bne	a1,a5,0x12508
   1264e:	a085                	j	0x126ae
   12650:	6c88                	ld	a0,24(s1)
   12652:	c519                	beqz	a0,0x12660
   12654:	651060ef          	jal	0x194a4
   12658:	409c                	lw	a5,0(s1)
   1265a:	eff7f793          	andi	a5,a5,-257
   1265e:	c09c                	sw	a5,0(s1)
   12660:	8526                	mv	a0,s1
   12662:	2c2010ef          	jal	0x13924
   12666:	7c9c                	ld	a5,56(s1)
   12668:	f49c                	sd	a5,40(s1)
   1266a:	f09c                	sd	a5,32(s1)
   1266c:	f89c                	sd	a5,48(s1)
   1266e:	ec9c                	sd	a5,24(s1)
   12670:	e49c                	sd	a5,8(s1)
   12672:	e89c                	sd	a5,16(s1)
   12674:	bd25                	j	0x124ac
   12676:	7d1c                	ld	a5,56(a0)
   12678:	c7b5                	beqz	a5,0x126e4
   1267a:	02853903          	ld	s2,40(a0)
   1267e:	711c                	ld	a5,32(a0)
   12680:	0727e863          	bltu	a5,s2,0x126f0
   12684:	00853903          	ld	s2,8(a0)
   12688:	691c                	ld	a5,16(a0)
   1268a:	40f90933          	sub	s2,s2,a5
   1268e:	68c8                	ld	a0,144(s1)
   12690:	57fd                	li	a5,-1
   12692:	0af50163          	beq	a0,a5,0x12734
   12696:	954a                	add	a0,a0,s2
   12698:	f60558e3          	bgez	a0,0x12608
   1269c:	0006f797          	auipc	a5,0x6f
   126a0:	7347b783          	ld	a5,1844(a5) # 0x81dd0
   126a4:	4759                	li	a4,22
   126a6:	557d                	li	a0,-1
   126a8:	9792                	add	a5,a5,tp
   126aa:	c398                	sw	a4,0(a5)
   126ac:	bfb1                	j	0x12608
   126ae:	409c                	lw	a5,0(s1)
   126b0:	bd9d                	j	0x12526
   126b2:	85ca                	mv	a1,s2
   126b4:	4981                	li	s3,0
   126b6:	bd51                	j	0x1254a
   126b8:	4781                	li	a5,0
   126ba:	7c98                	ld	a4,56(s1)
   126bc:	4094                	lw	a3,0(s1)
   126be:	0974b823          	sd	s7,144(s1)
   126c2:	7baa                	ld	s7,168(sp)
   126c4:	99ba                	add	s3,s3,a4
   126c6:	97ba                	add	a5,a5,a4
   126c8:	9abd                	andi	a3,a3,-17
   126ca:	ec98                	sd	a4,24(s1)
   126cc:	0134b423          	sd	s3,8(s1)
   126d0:	e89c                	sd	a5,16(s1)
   126d2:	f498                	sd	a4,40(s1)
   126d4:	f098                	sd	a4,32(s1)
   126d6:	f898                	sd	a4,48(s1)
   126d8:	c094                	sw	a3,0(s1)
   126da:	69ae                	ld	s3,200(sp)
   126dc:	7aea                	ld	s5,184(sp)
   126de:	7b4a                	ld	s6,176(sp)
   126e0:	854a                	mv	a0,s2
   126e2:	b71d                	j	0x12608
   126e4:	4901                	li	s2,0
   126e6:	b765                	j	0x1268e
   126e8:	69ae                	ld	s3,200(sp)
   126ea:	7aea                	ld	s5,184(sp)
   126ec:	7b4a                	ld	s6,176(sp)
   126ee:	bf29                	j	0x12608
   126f0:	411c                	lw	a5,0(a0)
   126f2:	03379713          	slli	a4,a5,0x33
   126f6:	08075763          	bgez	a4,0x12784
   126fa:	0d853903          	ld	s2,216(a0)
   126fe:	6785                	lui	a5,0x1
   12700:	0006d717          	auipc	a4,0x6d
   12704:	68070713          	addi	a4,a4,1664 # 0x7fd80
   12708:	40e90733          	sub	a4,s2,a4
   1270c:	92f78793          	addi	a5,a5,-1745 # 0x92f
   12710:	0ee7e563          	bltu	a5,a4,0x127fa
   12714:	08093783          	ld	a5,128(s2)
   12718:	4609                	li	a2,2
   1271a:	4581                	li	a1,0
   1271c:	8526                	mv	a0,s1
   1271e:	9782                	jalr	a5
   12720:	57fd                	li	a5,-1
   12722:	e8f508e3          	beq	a0,a5,0x125b2
   12726:	0284b903          	ld	s2,40(s1)
   1272a:	709c                	ld	a5,32(s1)
   1272c:	e8c8                	sd	a0,144(s1)
   1272e:	40f90933          	sub	s2,s2,a5
   12732:	b795                	j	0x12696
   12734:	e5ce                	sd	s3,200(sp)
   12736:	0d84b983          	ld	s3,216(s1)
   1273a:	6785                	lui	a5,0x1
   1273c:	0006d717          	auipc	a4,0x6d
   12740:	64470713          	addi	a4,a4,1604 # 0x7fd80
   12744:	40e98733          	sub	a4,s3,a4
   12748:	92f78793          	addi	a5,a5,-1745 # 0x92f
   1274c:	0ae7e463          	bltu	a5,a4,0x127f4
   12750:	0809b783          	ld	a5,128(s3)
   12754:	4605                	li	a2,1
   12756:	4581                	li	a1,0
   12758:	8526                	mv	a0,s1
   1275a:	9782                	jalr	a5
   1275c:	57fd                	li	a5,-1
   1275e:	69ae                	ld	s3,200(sp)
   12760:	f2f51be3          	bne	a0,a5,0x12696
   12764:	557d                	li	a0,-1
   12766:	b54d                	j	0x12608
   12768:	577d                	li	a4,-1
   1276a:	06e50063          	beq	a0,a4,0x127ca
   1276e:	40a98933          	sub	s2,s3,a0
   12772:	7baa                	ld	s7,168(sp)
   12774:	7c0a                	ld	s8,160(sp)
   12776:	4985                	li	s3,1
   12778:	b5a9                	j	0x125c2
   1277a:	0006da97          	auipc	s5,0x6d
   1277e:	606a8a93          	addi	s5,s5,1542 # 0x7fd80
   12782:	b581                	j	0x125c2
   12784:	691c                	ld	a5,16(a0)
   12786:	40f90933          	sub	s2,s2,a5
   1278a:	b711                	j	0x1268e
   1278c:	40e90733          	sub	a4,s2,a4
   12790:	9736                	add	a4,a4,a3
   12792:	9bbd                	andi	a5,a5,-17
   12794:	ec94                	sd	a3,24(s1)
   12796:	e498                	sd	a4,8(s1)
   12798:	f494                	sd	a3,40(s1)
   1279a:	f094                	sd	a3,32(s1)
   1279c:	f894                	sd	a3,48(s1)
   1279e:	c09c                	sw	a5,0(s1)
   127a0:	f205cde3          	bltz	a1,0x126da
   127a4:	0d84b983          	ld	s3,216(s1)
   127a8:	6785                	lui	a5,0x1
   127aa:	0006d717          	auipc	a4,0x6d
   127ae:	5d670713          	addi	a4,a4,1494 # 0x7fd80
   127b2:	40e98733          	sub	a4,s3,a4
   127b6:	92f78793          	addi	a5,a5,-1745 # 0x92f
   127ba:	04e7ed63          	bltu	a5,a4,0x12814
   127be:	0809b783          	ld	a5,128(s3)
   127c2:	4601                	li	a2,0
   127c4:	8526                	mv	a0,s1
   127c6:	9782                	jalr	a5
   127c8:	bf09                	j	0x126da
   127ca:	894e                	mv	s2,s3
   127cc:	7baa                	ld	s7,168(sp)
   127ce:	7c0a                	ld	s8,160(sp)
   127d0:	4985                	li	s3,1
   127d2:	bbc5                	j	0x125c2
   127d4:	b21fe0ef          	jal	0x112f4
   127d8:	b509                	j	0x125da
   127da:	f0b43c23          	sd	a1,-232(s0)
   127de:	b17fe0ef          	jal	0x112f4
   127e2:	f1843583          	ld	a1,-232(s0)
   127e6:	bb9d                	j	0x1255c
   127e8:	b0dfe0ef          	jal	0x112f4
   127ec:	b1e5                	j	0x124d4
   127ee:	b07fe0ef          	jal	0x112f4
   127f2:	bb49                	j	0x12584
   127f4:	b01fe0ef          	jal	0x112f4
   127f8:	bfa1                	j	0x12750
   127fa:	afbfe0ef          	jal	0x112f4
   127fe:	bf19                	j	0x12714
   12800:	69ae                	ld	s3,200(sp)
   12802:	7aea                	ld	s5,184(sp)
   12804:	7b4a                	ld	s6,176(sp)
   12806:	7baa                	ld	s7,168(sp)
   12808:	557d                	li	a0,-1
   1280a:	bbfd                	j	0x12608
   1280c:	69ae                	ld	s3,200(sp)
   1280e:	7aea                	ld	s5,184(sp)
   12810:	7b4a                	ld	s6,176(sp)
   12812:	b569                	j	0x1269c
   12814:	ae1fe0ef          	jal	0x112f4
   12818:	68cc                	ld	a1,144(s1)
   1281a:	b755                	j	0x127be
   1281c:	e5ce                	sd	s3,200(sp)
   1281e:	fd56                	sd	s5,184(sp)
   12820:	f95a                	sd	s6,176(sp)
   12822:	f55e                	sd	s7,168(sp)
   12824:	f162                	sd	s8,160(sp)
   12826:	5080a0ef          	jal	0x1cd2e
   1282a:	7179                	addi	sp,sp,-48
   1282c:	f022                	sd	s0,32(sp)
   1282e:	ec26                	sd	s1,24(sp)
   12830:	f406                	sd	ra,40(sp)
   12832:	e84a                	sd	s2,16(sp)
   12834:	1800                	addi	s0,sp,48
   12836:	84aa                	mv	s1,a0
   12838:	c2d1                	beqz	a3,0x128bc
   1283a:	4785                	li	a5,1
   1283c:	06f60a63          	beq	a2,a5,0x128b0
   12840:	4789                	li	a5,2
   12842:	892e                	mv	s2,a1
   12844:	00f61763          	bne	a2,a5,0x12852
   12848:	613c                	ld	a5,64(a0)
   1284a:	7d18                	ld	a4,56(a0)
   1284c:	8f99                	sub	a5,a5,a4
   1284e:	00b78933          	add	s2,a5,a1
   12852:	08094663          	bltz	s2,0x128de
   12856:	e44e                	sd	s3,8(sp)
   12858:	0d84b983          	ld	s3,216(s1)
   1285c:	6785                	lui	a5,0x1
   1285e:	0006d717          	auipc	a4,0x6d
   12862:	52270713          	addi	a4,a4,1314 # 0x7fd80
   12866:	40e98733          	sub	a4,s3,a4
   1286a:	92f78793          	addi	a5,a5,-1745 # 0x92f
   1286e:	06e7e563          	bltu	a5,a4,0x128d8
   12872:	0809b783          	ld	a5,128(s3)
   12876:	4601                	li	a2,0
   12878:	85ca                	mv	a1,s2
   1287a:	8526                	mv	a0,s1
   1287c:	9782                	jalr	a5
   1287e:	06054963          	bltz	a0,0x128f0
   12882:	60bc                	ld	a5,64(s1)
   12884:	7c94                	ld	a3,56(s1)
   12886:	40d78733          	sub	a4,a5,a3
   1288a:	01274463          	blt	a4,s2,0x12892
   1288e:	012687b3          	add	a5,a3,s2
   12892:	4098                	lw	a4,0(s1)
   12894:	69a2                	ld	s3,8(sp)
   12896:	ec94                	sd	a3,24(s1)
   12898:	9b3d                	andi	a4,a4,-17
   1289a:	e49c                	sd	a5,8(s1)
   1289c:	e89c                	sd	a5,16(s1)
   1289e:	e8c8                	sd	a0,144(s1)
   128a0:	c098                	sw	a4,0(s1)
   128a2:	70a2                	ld	ra,40(sp)
   128a4:	7402                	ld	s0,32(sp)
   128a6:	64e2                	ld	s1,24(sp)
   128a8:	854a                	mv	a0,s2
   128aa:	6942                	ld	s2,16(sp)
   128ac:	6145                	addi	sp,sp,48
   128ae:	8082                	ret
   128b0:	651c                	ld	a5,8(a0)
   128b2:	6d18                	ld	a4,24(a0)
   128b4:	8f99                	sub	a5,a5,a4
   128b6:	00b78933          	add	s2,a5,a1
   128ba:	bf61                	j	0x12852
   128bc:	691c                	ld	a5,16(a0)
   128be:	6518                	ld	a4,8(a0)
   128c0:	09053903          	ld	s2,144(a0)
   128c4:	70a2                	ld	ra,40(sp)
   128c6:	7402                	ld	s0,32(sp)
   128c8:	8f99                	sub	a5,a5,a4
   128ca:	40f90933          	sub	s2,s2,a5
   128ce:	64e2                	ld	s1,24(sp)
   128d0:	854a                	mv	a0,s2
   128d2:	6942                	ld	s2,16(sp)
   128d4:	6145                	addi	sp,sp,48
   128d6:	8082                	ret
   128d8:	a1dfe0ef          	jal	0x112f4
   128dc:	bf59                	j	0x12872
   128de:	0006f797          	auipc	a5,0x6f
   128e2:	4f27b783          	ld	a5,1266(a5) # 0x81dd0
   128e6:	4759                	li	a4,22
   128e8:	597d                	li	s2,-1
   128ea:	9792                	add	a5,a5,tp
   128ec:	c398                	sw	a4,0(a5)
   128ee:	bf55                	j	0x128a2
   128f0:	69a2                	ld	s3,8(sp)
   128f2:	597d                	li	s2,-1
   128f4:	b77d                	j	0x128a2
   128f6:	7179                	addi	sp,sp,-48
   128f8:	f022                	sd	s0,32(sp)
   128fa:	ec26                	sd	s1,24(sp)
   128fc:	e84a                	sd	s2,16(sp)
   128fe:	f406                	sd	ra,40(sp)
   12900:	1800                	addi	s0,sp,48
   12902:	0d853903          	ld	s2,216(a0)
   12906:	6785                	lui	a5,0x1
   12908:	0006d717          	auipc	a4,0x6d
   1290c:	47870713          	addi	a4,a4,1144 # 0x7fd80
   12910:	40e90733          	sub	a4,s2,a4
   12914:	92f78793          	addi	a5,a5,-1745 # 0x92f
   12918:	84aa                	mv	s1,a0
   1291a:	00e7ef63          	bltu	a5,a4,0x12938
   1291e:	08093783          	ld	a5,128(s2)
   12922:	8526                	mv	a0,s1
   12924:	9782                	jalr	a5
   12926:	02054463          	bltz	a0,0x1294e
   1292a:	e8c8                	sd	a0,144(s1)
   1292c:	70a2                	ld	ra,40(sp)
   1292e:	7402                	ld	s0,32(sp)
   12930:	64e2                	ld	s1,24(sp)
   12932:	6942                	ld	s2,16(sp)
   12934:	6145                	addi	sp,sp,48
   12936:	8082                	ret
   12938:	fcc43823          	sd	a2,-48(s0)
   1293c:	fcb43c23          	sd	a1,-40(s0)
   12940:	9b5fe0ef          	jal	0x112f4
   12944:	fd043603          	ld	a2,-48(s0)
   12948:	fd843583          	ld	a1,-40(s0)
   1294c:	bfc9                	j	0x1291e
   1294e:	557d                	li	a0,-1
   12950:	bff1                	j	0x1292c
   12952:	1141                	addi	sp,sp,-16
   12954:	e422                	sd	s0,8(sp)
   12956:	0800                	addi	s0,sp,16
   12958:	597c                	lw	a5,116(a0)
   1295a:	5928                	lw	a0,112(a0)
   1295c:	8b89                	andi	a5,a5,2
   1295e:	e789                	bnez	a5,0x12968
   12960:	6422                	ld	s0,8(sp)
   12962:	0141                	addi	sp,sp,16
   12964:	2e80906f          	j	0x1bc4c
   12968:	6422                	ld	s0,8(sp)
   1296a:	0141                	addi	sp,sp,16
   1296c:	6180906f          	j	0x1bf84
   12970:	1141                	addi	sp,sp,-16
   12972:	e422                	sd	s0,8(sp)
   12974:	0800                	addi	s0,sp,16
   12976:	6422                	ld	s0,8(sp)
   12978:	5928                	lw	a0,112(a0)
   1297a:	0141                	addi	sp,sp,16
   1297c:	1ae0906f          	j	0x1bb2a
   12980:	1141                	addi	sp,sp,-16
   12982:	e422                	sd	s0,8(sp)
   12984:	0800                	addi	s0,sp,16
   12986:	6422                	ld	s0,8(sp)
   12988:	5928                	lw	a0,112(a0)
   1298a:	0141                	addi	sp,sp,16
   1298c:	16a0906f          	j	0x1baf6
   12990:	1101                	addi	sp,sp,-32
   12992:	e822                	sd	s0,16(sp)
   12994:	e426                	sd	s1,8(sp)
   12996:	ec06                	sd	ra,24(sp)
   12998:	1000                	addi	s0,sp,32
   1299a:	84aa                	mv	s1,a0
   1299c:	60ac                	ld	a1,64(s1)
   1299e:	7d08                	ld	a0,56(a0)
   129a0:	8d89                	sub	a1,a1,a0
   129a2:	4fb090ef          	jal	0x1c69c
   129a6:	6442                	ld	s0,16(sp)
   129a8:	58a8                	lw	a0,112(s1)
   129aa:	60e2                	ld	ra,24(sp)
   129ac:	0404b023          	sd	zero,64(s1)
   129b0:	0204bc23          	sd	zero,56(s1)
   129b4:	64a2                	ld	s1,8(sp)
   129b6:	6105                	addi	sp,sp,32
   129b8:	3b40906f          	j	0x1bd6c
   129bc:	1141                	addi	sp,sp,-16
   129be:	e422                	sd	s0,8(sp)
   129c0:	0800                	addi	s0,sp,16
   129c2:	6422                	ld	s0,8(sp)
   129c4:	5928                	lw	a0,112(a0)
   129c6:	0141                	addi	sp,sp,16
   129c8:	3a40906f          	j	0x1bd6c
   129cc:	7179                	addi	sp,sp,-48
   129ce:	f022                	sd	s0,32(sp)
   129d0:	e44e                	sd	s3,8(sp)
   129d2:	f406                	sd	ra,40(sp)
   129d4:	1800                	addi	s0,sp,48
   129d6:	89aa                	mv	s3,a0
   129d8:	06c05963          	blez	a2,0x12a4a
   129dc:	ec26                	sd	s1,24(sp)
   129de:	e84a                	sd	s2,16(sp)
   129e0:	e052                	sd	s4,0(sp)
   129e2:	892e                	mv	s2,a1
   129e4:	8a32                	mv	s4,a2
   129e6:	84b2                	mv	s1,a2
   129e8:	0749a783          	lw	a5,116(s3)
   129ec:	0709a503          	lw	a0,112(s3)
   129f0:	8626                	mv	a2,s1
   129f2:	8b89                	andi	a5,a5,2
   129f4:	85ca                	mv	a1,s2
   129f6:	eb95                	bnez	a5,0x12a2a
   129f8:	2e4090ef          	jal	0x1bcdc
   129fc:	02054b63          	bltz	a0,0x12a32
   12a00:	8c89                	sub	s1,s1,a0
   12a02:	992a                	add	s2,s2,a0
   12a04:	fe9042e3          	bgtz	s1,0x129e8
   12a08:	409a0533          	sub	a0,s4,s1
   12a0c:	6942                	ld	s2,16(sp)
   12a0e:	64e2                	ld	s1,24(sp)
   12a10:	6a02                	ld	s4,0(sp)
   12a12:	0909b783          	ld	a5,144(s3)
   12a16:	0007c563          	bltz	a5,0x12a20
   12a1a:	97aa                	add	a5,a5,a0
   12a1c:	08f9b823          	sd	a5,144(s3)
   12a20:	70a2                	ld	ra,40(sp)
   12a22:	7402                	ld	s0,32(sp)
   12a24:	69a2                	ld	s3,8(sp)
   12a26:	6145                	addi	sp,sp,48
   12a28:	8082                	ret
   12a2a:	58c090ef          	jal	0x1bfb6
   12a2e:	fc0559e3          	bgez	a0,0x12a00
   12a32:	0009a783          	lw	a5,0(s3)
   12a36:	409a0533          	sub	a0,s4,s1
   12a3a:	6942                	ld	s2,16(sp)
   12a3c:	0207e793          	ori	a5,a5,32
   12a40:	64e2                	ld	s1,24(sp)
   12a42:	6a02                	ld	s4,0(sp)
   12a44:	00f9a023          	sw	a5,0(s3)
   12a48:	b7e9                	j	0x12a12
   12a4a:	4501                	li	a0,0
   12a4c:	b7d9                	j	0x12a12
   12a4e:	c251                	beqz	a2,0x12ad2
   12a50:	7139                	addi	sp,sp,-64
   12a52:	f822                	sd	s0,48(sp)
   12a54:	f426                	sd	s1,40(sp)
   12a56:	f04a                	sd	s2,32(sp)
   12a58:	e852                	sd	s4,16(sp)
   12a5a:	fc06                	sd	ra,56(sp)
   12a5c:	ec4e                	sd	s3,24(sp)
   12a5e:	e456                	sd	s5,8(sp)
   12a60:	0080                	addi	s0,sp,64
   12a62:	6118                	ld	a4,0(a0)
   12a64:	6785                	lui	a5,0x1
   12a66:	a0078793          	addi	a5,a5,-1536 # 0xa00
   12a6a:	8f7d                	and	a4,a4,a5
   12a6c:	84aa                	mv	s1,a0
   12a6e:	8a32                	mv	s4,a2
   12a70:	7508                	ld	a0,40(a0)
   12a72:	892e                	mv	s2,a1
   12a74:	02f70963          	beq	a4,a5,0x12aa6
   12a78:	7898                	ld	a4,48(s1)
   12a7a:	06e57063          	bgeu	a0,a4,0x12ada
   12a7e:	8f09                	sub	a4,a4,a0
   12a80:	4a81                	li	s5,0
   12a82:	89d2                	mv	s3,s4
   12a84:	0d476663          	bltu	a4,s4,0x12b50
   12a88:	864e                	mv	a2,s3
   12a8a:	85ca                	mv	a1,s2
   12a8c:	471070ef          	jal	0x1a6fc
   12a90:	954e                	add	a0,a0,s3
   12a92:	994e                	add	s2,s2,s3
   12a94:	f488                	sd	a0,40(s1)
   12a96:	413a09b3          	sub	s3,s4,s3
   12a9a:	9ace                	add	s5,s5,s3
   12a9c:	040a9063          	bnez	s5,0x12adc
   12aa0:	413a0533          	sub	a0,s4,s3
   12aa4:	a849                	j	0x12b36
   12aa6:	60b8                	ld	a4,64(s1)
   12aa8:	8f09                	sub	a4,a4,a0
   12aaa:	02c76663          	bltu	a4,a2,0x12ad6
   12aae:	00c587b3          	add	a5,a1,a2
   12ab2:	4629                	li	a2,10
   12ab4:	fcf976e3          	bgeu	s2,a5,0x12a80
   12ab8:	fff7c683          	lbu	a3,-1(a5)
   12abc:	17fd                	addi	a5,a5,-1
   12abe:	fec69be3          	bne	a3,a2,0x12ab4
   12ac2:	412787b3          	sub	a5,a5,s2
   12ac6:	00178713          	addi	a4,a5,1
   12aca:	ef4d                	bnez	a4,0x12b84
   12acc:	89d2                	mv	s3,s4
   12ace:	4a85                	li	s5,1
   12ad0:	b7e9                	j	0x12a9a
   12ad2:	4501                	li	a0,0
   12ad4:	8082                	ret
   12ad6:	4a81                	li	s5,0
   12ad8:	f74d                	bnez	a4,0x12a82
   12ada:	89d2                	mv	s3,s4
   12adc:	0d84ba83          	ld	s5,216(s1)
   12ae0:	6785                	lui	a5,0x1
   12ae2:	0006d717          	auipc	a4,0x6d
   12ae6:	29e70713          	addi	a4,a4,670 # 0x7fd80
   12aea:	40ea8733          	sub	a4,s5,a4
   12aee:	92f78793          	addi	a5,a5,-1745 # 0x92f
   12af2:	08e7e263          	bltu	a5,a4,0x12b76
   12af6:	018ab783          	ld	a5,24(s5)
   12afa:	55fd                	li	a1,-1
   12afc:	8526                	mv	a0,s1
   12afe:	9782                	jalr	a5
   12b00:	57fd                	li	a5,-1
   12b02:	06f50463          	beq	a0,a5,0x12b6a
   12b06:	60bc                	ld	a5,64(s1)
   12b08:	7c94                	ld	a3,56(s1)
   12b0a:	07f00713          	li	a4,127
   12b0e:	8f95                	sub	a5,a5,a3
   12b10:	02f77c63          	bgeu	a4,a5,0x12b48
   12b14:	02f9f7b3          	remu	a5,s3,a5
   12b18:	40f98ab3          	sub	s5,s3,a5
   12b1c:	02f99d63          	bne	s3,a5,0x12b56
   12b20:	02098663          	beqz	s3,0x12b4c
   12b24:	864e                	mv	a2,s3
   12b26:	015905b3          	add	a1,s2,s5
   12b2a:	8526                	mv	a0,s1
   12b2c:	6f1000ef          	jal	0x13a1c
   12b30:	41350533          	sub	a0,a0,s3
   12b34:	9552                	add	a0,a0,s4
   12b36:	70e2                	ld	ra,56(sp)
   12b38:	7442                	ld	s0,48(sp)
   12b3a:	74a2                	ld	s1,40(sp)
   12b3c:	7902                	ld	s2,32(sp)
   12b3e:	69e2                	ld	s3,24(sp)
   12b40:	6a42                	ld	s4,16(sp)
   12b42:	6aa2                	ld	s5,8(sp)
   12b44:	6121                	addi	sp,sp,64
   12b46:	8082                	ret
   12b48:	00099663          	bnez	s3,0x12b54
   12b4c:	8552                	mv	a0,s4
   12b4e:	b7e5                	j	0x12b36
   12b50:	89ba                	mv	s3,a4
   12b52:	bf1d                	j	0x12a88
   12b54:	8ace                	mv	s5,s3
   12b56:	8656                	mv	a2,s5
   12b58:	85ca                	mv	a1,s2
   12b5a:	8526                	mv	a0,s1
   12b5c:	fb8fe0ef          	jal	0x11314
   12b60:	01556e63          	bltu	a0,s5,0x12b7c
   12b64:	40a989b3          	sub	s3,s3,a0
   12b68:	bf65                	j	0x12b20
   12b6a:	557d                	li	a0,-1
   12b6c:	fc0985e3          	beqz	s3,0x12b36
   12b70:	413a0533          	sub	a0,s4,s3
   12b74:	b7c9                	j	0x12b36
   12b76:	f7efe0ef          	jal	0x112f4
   12b7a:	bfb5                	j	0x12af6
   12b7c:	413a0633          	sub	a2,s4,s3
   12b80:	9532                	add	a0,a0,a2
   12b82:	bf55                	j	0x12b36
   12b84:	4a85                	li	s5,1
   12b86:	bdf5                	j	0x12a82
   12b88:	7159                	addi	sp,sp,-112
   12b8a:	f0a2                	sd	s0,96(sp)
   12b8c:	eca6                	sd	s1,88(sp)
   12b8e:	e0d2                	sd	s4,64(sp)
   12b90:	ec66                	sd	s9,24(sp)
   12b92:	f486                	sd	ra,104(sp)
   12b94:	e4ce                	sd	s3,72(sp)
   12b96:	1880                	addi	s0,sp,112
   12b98:	7d1c                	ld	a5,56(a0)
   12b9a:	84aa                	mv	s1,a0
   12b9c:	8cae                	mv	s9,a1
   12b9e:	8a32                	mv	s4,a2
   12ba0:	14078b63          	beqz	a5,0x12cf6
   12ba4:	89d2                	mv	s3,s4
   12ba6:	080a0c63          	beqz	s4,0x12c3e
   12baa:	fc56                	sd	s5,56(sp)
   12bac:	6a85                	lui	s5,0x1
   12bae:	f85a                	sd	s6,48(sp)
   12bb0:	f45e                	sd	s7,40(sp)
   12bb2:	f062                	sd	s8,32(sp)
   12bb4:	e8ca                	sd	s2,80(sp)
   12bb6:	0006db97          	auipc	s7,0x6d
   12bba:	1cab8b93          	addi	s7,s7,458 # 0x7fd80
   12bbe:	92fa8a93          	addi	s5,s5,-1745 # 0x92f
   12bc2:	5b7d                	li	s6,-1
   12bc4:	07f00c13          	li	s8,127
   12bc8:	648c                	ld	a1,8(s1)
   12bca:	0104b903          	ld	s2,16(s1)
   12bce:	40b90933          	sub	s2,s2,a1
   12bd2:	0b397a63          	bgeu	s2,s3,0x12c86
   12bd6:	06091f63          	bnez	s2,0x12c54
   12bda:	409c                	lw	a5,0(s1)
   12bdc:	1007f793          	andi	a5,a5,256
   12be0:	ebc9                	bnez	a5,0x12c72
   12be2:	7c9c                	ld	a5,56(s1)
   12be4:	c7b5                	beqz	a5,0x12c50
   12be6:	60b8                	ld	a4,64(s1)
   12be8:	8f1d                	sub	a4,a4,a5
   12bea:	0ae9eb63          	bltu	s3,a4,0x12ca0
   12bee:	06ec7163          	bgeu	s8,a4,0x12c50
   12bf2:	02e9f633          	remu	a2,s3,a4
   12bf6:	40c98633          	sub	a2,s3,a2
   12bfa:	0d84b903          	ld	s2,216(s1)
   12bfe:	ec9c                	sd	a5,24(s1)
   12c00:	e49c                	sd	a5,8(s1)
   12c02:	e89c                	sd	a5,16(s1)
   12c04:	f49c                	sd	a5,40(s1)
   12c06:	f09c                	sd	a5,32(s1)
   12c08:	f89c                	sd	a5,48(s1)
   12c0a:	417907b3          	sub	a5,s2,s7
   12c0e:	0afaed63          	bltu	s5,a5,0x12cc8
   12c12:	07093783          	ld	a5,112(s2)
   12c16:	85e6                	mv	a1,s9
   12c18:	8526                	mv	a0,s1
   12c1a:	9782                	jalr	a5
   12c1c:	0ca05363          	blez	a0,0x12ce2
   12c20:	68dc                	ld	a5,144(s1)
   12c22:	9caa                	add	s9,s9,a0
   12c24:	40a989b3          	sub	s3,s3,a0
   12c28:	01678463          	beq	a5,s6,0x12c30
   12c2c:	97aa                	add	a5,a5,a0
   12c2e:	e8dc                	sd	a5,144(s1)
   12c30:	f8099ce3          	bnez	s3,0x12bc8
   12c34:	6946                	ld	s2,80(sp)
   12c36:	7ae2                	ld	s5,56(sp)
   12c38:	7b42                	ld	s6,48(sp)
   12c3a:	7ba2                	ld	s7,40(sp)
   12c3c:	7c02                	ld	s8,32(sp)
   12c3e:	70a6                	ld	ra,104(sp)
   12c40:	7406                	ld	s0,96(sp)
   12c42:	64e6                	ld	s1,88(sp)
   12c44:	69a6                	ld	s3,72(sp)
   12c46:	6ce2                	ld	s9,24(sp)
   12c48:	8552                	mv	a0,s4
   12c4a:	6a06                	ld	s4,64(sp)
   12c4c:	6165                	addi	sp,sp,112
   12c4e:	8082                	ret
   12c50:	864e                	mv	a2,s3
   12c52:	b765                	j	0x12bfa
   12c54:	8566                	mv	a0,s9
   12c56:	864a                	mv	a2,s2
   12c58:	2a5070ef          	jal	0x1a6fc
   12c5c:	649c                	ld	a5,8(s1)
   12c5e:	01250cb3          	add	s9,a0,s2
   12c62:	412989b3          	sub	s3,s3,s2
   12c66:	97ca                	add	a5,a5,s2
   12c68:	e49c                	sd	a5,8(s1)
   12c6a:	409c                	lw	a5,0(s1)
   12c6c:	1007f793          	andi	a5,a5,256
   12c70:	dbad                	beqz	a5,0x12be2
   12c72:	8526                	mv	a0,s1
   12c74:	0fb000ef          	jal	0x1356e
   12c78:	648c                	ld	a1,8(s1)
   12c7a:	0104b903          	ld	s2,16(s1)
   12c7e:	40b90933          	sub	s2,s2,a1
   12c82:	f5396ae3          	bltu	s2,s3,0x12bd6
   12c86:	864e                	mv	a2,s3
   12c88:	8566                	mv	a0,s9
   12c8a:	273070ef          	jal	0x1a6fc
   12c8e:	649c                	ld	a5,8(s1)
   12c90:	6946                	ld	s2,80(sp)
   12c92:	7ae2                	ld	s5,56(sp)
   12c94:	97ce                	add	a5,a5,s3
   12c96:	7b42                	ld	s6,48(sp)
   12c98:	7ba2                	ld	s7,40(sp)
   12c9a:	7c02                	ld	s8,32(sp)
   12c9c:	e49c                	sd	a5,8(s1)
   12c9e:	b745                	j	0x12c3e
   12ca0:	8526                	mv	a0,s1
   12ca2:	239000ef          	jal	0x136da
   12ca6:	f36511e3          	bne	a0,s6,0x12bc8
   12caa:	413a0533          	sub	a0,s4,s3
   12cae:	70a6                	ld	ra,104(sp)
   12cb0:	7406                	ld	s0,96(sp)
   12cb2:	6946                	ld	s2,80(sp)
   12cb4:	7ae2                	ld	s5,56(sp)
   12cb6:	7b42                	ld	s6,48(sp)
   12cb8:	7ba2                	ld	s7,40(sp)
   12cba:	7c02                	ld	s8,32(sp)
   12cbc:	64e6                	ld	s1,88(sp)
   12cbe:	69a6                	ld	s3,72(sp)
   12cc0:	6a06                	ld	s4,64(sp)
   12cc2:	6ce2                	ld	s9,24(sp)
   12cc4:	6165                	addi	sp,sp,112
   12cc6:	8082                	ret
   12cc8:	f8c43c23          	sd	a2,-104(s0)
   12ccc:	e28fe0ef          	jal	0x112f4
   12cd0:	f9843603          	ld	a2,-104(s0)
   12cd4:	07093783          	ld	a5,112(s2)
   12cd8:	85e6                	mv	a1,s9
   12cda:	8526                	mv	a0,s1
   12cdc:	9782                	jalr	a5
   12cde:	f4a041e3          	bgtz	a0,0x12c20
   12ce2:	409c                	lw	a5,0(s1)
   12ce4:	0207e713          	ori	a4,a5,32
   12ce8:	e119                	bnez	a0,0x12cee
   12cea:	0107e713          	ori	a4,a5,16
   12cee:	413a0533          	sub	a0,s4,s3
   12cf2:	c098                	sw	a4,0(s1)
   12cf4:	bf6d                	j	0x12cae
   12cf6:	6528                	ld	a0,72(a0)
   12cf8:	c519                	beqz	a0,0x12d06
   12cfa:	7aa060ef          	jal	0x194a4
   12cfe:	409c                	lw	a5,0(s1)
   12d00:	eff7f793          	andi	a5,a5,-257
   12d04:	c09c                	sw	a5,0(s1)
   12d06:	8526                	mv	a0,s1
   12d08:	41d000ef          	jal	0x13924
   12d0c:	bd61                	j	0x12ba4
   12d0e:	7139                	addi	sp,sp,-64
   12d10:	f822                	sd	s0,48(sp)
   12d12:	f426                	sd	s1,40(sp)
   12d14:	f04a                	sd	s2,32(sp)
   12d16:	ec4e                	sd	s3,24(sp)
   12d18:	e456                	sd	s5,8(sp)
   12d1a:	e05a                	sd	s6,0(sp)
   12d1c:	fc06                	sd	ra,56(sp)
   12d1e:	e852                	sd	s4,16(sp)
   12d20:	0080                	addi	s0,sp,64
   12d22:	00853b03          	ld	s6,8(a0)
   12d26:	01053983          	ld	s3,16(a0)
   12d2a:	84aa                	mv	s1,a0
   12d2c:	8932                	mv	s2,a2
   12d2e:	416989b3          	sub	s3,s3,s6
   12d32:	8aae                	mv	s5,a1
   12d34:	04c9f563          	bgeu	s3,a2,0x12d7e
   12d38:	411c                	lw	a5,0(a0)
   12d3a:	8a2e                	mv	s4,a1
   12d3c:	1007f793          	andi	a5,a5,256
   12d40:	e3b9                	bnez	a5,0x12d86
   12d42:	8526                	mv	a0,s1
   12d44:	ecafe0ef          	jal	0x1140e
   12d48:	ed41                	bnez	a0,0x12de0
   12d4a:	0084bb03          	ld	s6,8(s1)
   12d4e:	0104b983          	ld	s3,16(s1)
   12d52:	416989b3          	sub	s3,s3,s6
   12d56:	0529fc63          	bgeu	s3,s2,0x12dae
   12d5a:	409c                	lw	a5,0(s1)
   12d5c:	0107e793          	ori	a5,a5,16
   12d60:	c09c                	sw	a5,0(s1)
   12d62:	04099663          	bnez	s3,0x12dae
   12d66:	415a0533          	sub	a0,s4,s5
   12d6a:	70e2                	ld	ra,56(sp)
   12d6c:	7442                	ld	s0,48(sp)
   12d6e:	74a2                	ld	s1,40(sp)
   12d70:	7902                	ld	s2,32(sp)
   12d72:	69e2                	ld	s3,24(sp)
   12d74:	6a42                	ld	s4,16(sp)
   12d76:	6aa2                	ld	s5,8(sp)
   12d78:	6b02                	ld	s6,0(sp)
   12d7a:	6121                	addi	sp,sp,64
   12d7c:	8082                	ret
   12d7e:	8a2e                	mv	s4,a1
   12d80:	fe0983e3          	beqz	s3,0x12d66
   12d84:	a02d                	j	0x12dae
   12d86:	864e                	mv	a2,s3
   12d88:	85da                	mv	a1,s6
   12d8a:	8556                	mv	a0,s5
   12d8c:	171070ef          	jal	0x1a6fc
   12d90:	8a2a                	mv	s4,a0
   12d92:	8526                	mv	a0,s1
   12d94:	7da000ef          	jal	0x1356e
   12d98:	9a4e                	add	s4,s4,s3
   12d9a:	0084bb03          	ld	s6,8(s1)
   12d9e:	41390933          	sub	s2,s2,s3
   12da2:	0104b983          	ld	s3,16(s1)
   12da6:	416989b3          	sub	s3,s3,s6
   12daa:	f929ece3          	bltu	s3,s2,0x12d42
   12dae:	0129ed63          	bltu	s3,s2,0x12dc8
   12db2:	85da                	mv	a1,s6
   12db4:	8552                	mv	a0,s4
   12db6:	864a                	mv	a2,s2
   12db8:	145070ef          	jal	0x1a6fc
   12dbc:	9b4a                	add	s6,s6,s2
   12dbe:	01250a33          	add	s4,a0,s2
   12dc2:	0164b423          	sd	s6,8(s1)
   12dc6:	b745                	j	0x12d66
   12dc8:	894e                	mv	s2,s3
   12dca:	85da                	mv	a1,s6
   12dcc:	8552                	mv	a0,s4
   12dce:	864a                	mv	a2,s2
   12dd0:	12d070ef          	jal	0x1a6fc
   12dd4:	9b4a                	add	s6,s6,s2
   12dd6:	01250a33          	add	s4,a0,s2
   12dda:	0164b423          	sd	s6,8(s1)
   12dde:	b761                	j	0x12d66
   12de0:	0d84b983          	ld	s3,216(s1)
   12de4:	6785                	lui	a5,0x1
   12de6:	0006d717          	auipc	a4,0x6d
   12dea:	f9a70713          	addi	a4,a4,-102 # 0x7fd80
   12dee:	40e98733          	sub	a4,s3,a4
   12df2:	92f78793          	addi	a5,a5,-1745 # 0x92f
   12df6:	415a0a33          	sub	s4,s4,s5
   12dfa:	00e7ea63          	bltu	a5,a4,0x12e0e
   12dfe:	0409b783          	ld	a5,64(s3)
   12e02:	864a                	mv	a2,s2
   12e04:	85d6                	mv	a1,s5
   12e06:	8526                	mv	a0,s1
   12e08:	9782                	jalr	a5
   12e0a:	9552                	add	a0,a0,s4
   12e0c:	bfb9                	j	0x12d6a
   12e0e:	ce6fe0ef          	jal	0x112f4
   12e12:	b7f5                	j	0x12dfe
   12e14:	7179                	addi	sp,sp,-48
   12e16:	f022                	sd	s0,32(sp)
   12e18:	ec26                	sd	s1,24(sp)
   12e1a:	e84a                	sd	s2,16(sp)
   12e1c:	e44e                	sd	s3,8(sp)
   12e1e:	e052                	sd	s4,0(sp)
   12e20:	f406                	sd	ra,40(sp)
   12e22:	1800                	addi	s0,sp,48
   12e24:	84aa                	mv	s1,a0
   12e26:	892e                	mv	s2,a1
   12e28:	89b2                	mv	s3,a2
   12e2a:	f6afe0ef          	jal	0x11594
   12e2e:	0d84ba03          	ld	s4,216(s1)
   12e32:	6785                	lui	a5,0x1
   12e34:	0006d717          	auipc	a4,0x6d
   12e38:	f4c70713          	addi	a4,a4,-180 # 0x7fd80
   12e3c:	40ea0733          	sub	a4,s4,a4
   12e40:	92f78793          	addi	a5,a5,-1745 # 0x92f
   12e44:	00e7ef63          	bltu	a5,a4,0x12e62
   12e48:	7402                	ld	s0,32(sp)
   12e4a:	040a3783          	ld	a5,64(s4)
   12e4e:	70a2                	ld	ra,40(sp)
   12e50:	6a02                	ld	s4,0(sp)
   12e52:	864e                	mv	a2,s3
   12e54:	85ca                	mv	a1,s2
   12e56:	69a2                	ld	s3,8(sp)
   12e58:	6942                	ld	s2,16(sp)
   12e5a:	8526                	mv	a0,s1
   12e5c:	64e2                	ld	s1,24(sp)
   12e5e:	6145                	addi	sp,sp,48
   12e60:	8782                	jr	a5
   12e62:	c92fe0ef          	jal	0x112f4
   12e66:	b7cd                	j	0x12e48
   12e68:	1101                	addi	sp,sp,-32
   12e6a:	e822                	sd	s0,16(sp)
   12e6c:	e426                	sd	s1,8(sp)
   12e6e:	ec06                	sd	ra,24(sp)
   12e70:	1000                	addi	s0,sp,32
   12e72:	4c818493          	addi	s1,gp,1224
   12e76:	609c                	ld	a5,0(s1)
   12e78:	8a022703          	lw	a4,-1888(tp) # 0xfffffffffffff8a0
   12e7c:	c3b1                	beqz	a5,0x12ec0
   12e7e:	4394                	lw	a3,0(a5)
   12e80:	03069613          	slli	a2,a3,0x30
   12e84:	02064e63          	bltz	a2,0x12ec0
   12e88:	67c8                	ld	a0,136(a5)
   12e8a:	4154                	lw	a3,4(a0)
   12e8c:	eb2d                	bnez	a4,0x12efe
   12e8e:	cebd                	beqz	a3,0x12f0c
   12e90:	fff6879b          	addiw	a5,a3,-1 # 0xefff
   12e94:	c15c                	sw	a5,4(a0)
   12e96:	44d4                	lw	a3,12(s1)
   12e98:	cab1                	beqz	a3,0x12eec
   12e9a:	fff6879b          	addiw	a5,a3,-1
   12e9e:	c4dc                	sw	a5,12(s1)
   12ea0:	60e2                	ld	ra,24(sp)
   12ea2:	6442                	ld	s0,16(sp)
   12ea4:	64a2                	ld	s1,8(sp)
   12ea6:	6105                	addi	sp,sp,32
   12ea8:	8082                	ret
   12eaa:	00053423          	sd	zero,8(a0)
   12eae:	87b6                	mv	a5,a3
   12eb0:	0af527af          	amoswap.w.rl	a5,a5,(a0)
   12eb4:	4705                	li	a4,1
   12eb6:	2781                	sext.w	a5,a5
   12eb8:	04f74f63          	blt	a4,a5,0x12f16
   12ebc:	8a022703          	lw	a4,-1888(tp) # 0xfffffffffffff8a0
   12ec0:	44d4                	lw	a3,12(s1)
   12ec2:	db71                	beqz	a4,0x12e96
   12ec4:	faf9                	bnez	a3,0x12e9a
   12ec6:	4c01bc23          	sd	zero,1240(gp)
   12eca:	00848713          	addi	a4,s1,8
   12ece:	87b6                	mv	a5,a3
   12ed0:	0af727af          	amoswap.w.rl	a5,a5,(a4)
   12ed4:	4705                	li	a4,1
   12ed6:	2781                	sext.w	a5,a5
   12ed8:	fcf754e3          	bge	a4,a5,0x12ea0
   12edc:	6442                	ld	s0,16(sp)
   12ede:	60e2                	ld	ra,24(sp)
   12ee0:	64a2                	ld	s1,8(sp)
   12ee2:	4d018513          	addi	a0,gp,1232
   12ee6:	6105                	addi	sp,sp,32
   12ee8:	5a60206f          	j	0x1548e
   12eec:	60e2                	ld	ra,24(sp)
   12eee:	6442                	ld	s0,16(sp)
   12ef0:	4c01bc23          	sd	zero,1240(gp)
   12ef4:	4c01a823          	sw	zero,1232(gp)
   12ef8:	64a2                	ld	s1,8(sp)
   12efa:	6105                	addi	sp,sp,32
   12efc:	8082                	ret
   12efe:	d6d5                	beqz	a3,0x12eaa
   12f00:	fff6879b          	addiw	a5,a3,-1
   12f04:	c15c                	sw	a5,4(a0)
   12f06:	44d4                	lw	a3,12(s1)
   12f08:	fac9                	bnez	a3,0x12e9a
   12f0a:	bf75                	j	0x12ec6
   12f0c:	00053423          	sd	zero,8(a0)
   12f10:	00052023          	sw	zero,0(a0)
   12f14:	b749                	j	0x12e96
   12f16:	578020ef          	jal	0x1548e
   12f1a:	8a022703          	lw	a4,-1888(tp) # 0xfffffffffffff8a0
   12f1e:	b74d                	j	0x12ec0
   12f20:	7159                	addi	sp,sp,-112
   12f22:	f0a2                	sd	s0,96(sp)
   12f24:	eca6                	sd	s1,88(sp)
   12f26:	e8ca                	sd	s2,80(sp)
   12f28:	e4ce                	sd	s3,72(sp)
   12f2a:	e0d2                	sd	s4,64(sp)
   12f2c:	fc56                	sd	s5,56(sp)
   12f2e:	f85a                	sd	s6,48(sp)
   12f30:	f062                	sd	s8,32(sp)
   12f32:	ec66                	sd	s9,24(sp)
   12f34:	f486                	sd	ra,104(sp)
   12f36:	1880                	addi	s0,sp,112
   12f38:	01853c03          	ld	s8,24(a0)
   12f3c:	05853c83          	ld	s9,88(a0)
   12f40:	04853b03          	ld	s6,72(a0)
   12f44:	713c                	ld	a5,96(a0)
   12f46:	41858933          	sub	s2,a1,s8
   12f4a:	89aa                	mv	s3,a0
   12f4c:	8a2e                	mv	s4,a1
   12f4e:	416c8ab3          	sub	s5,s9,s6
   12f52:	84ca                	mv	s1,s2
   12f54:	10078f63          	beqz	a5,0x13072
   12f58:	f45e                	sd	s7,40(sp)
   12f5a:	873e                	mv	a4,a5
   12f5c:	4b14                	lw	a3,16(a4)
   12f5e:	0096d363          	bge	a3,s1,0x12f64
   12f62:	84b6                	mv	s1,a3
   12f64:	6318                	ld	a4,0(a4)
   12f66:	fb7d                	bnez	a4,0x12f5c
   12f68:	40990bb3          	sub	s7,s2,s1
   12f6c:	057ae163          	bltu	s5,s7,0x12fae
   12f70:	417a8ab3          	sub	s5,s5,s7
   12f74:	015b0533          	add	a0,s6,s5
   12f78:	0804c363          	bltz	s1,0x12ffe
   12f7c:	0c0b9b63          	bnez	s7,0x13052
   12f80:	7ba2                	ld	s7,40(sp)
   12f82:	04a9b823          	sd	a0,80(s3)
   12f86:	0009069b          	sext.w	a3,s2
   12f8a:	4b98                	lw	a4,16(a5)
   12f8c:	9f15                	subw	a4,a4,a3
   12f8e:	cb98                	sw	a4,16(a5)
   12f90:	639c                	ld	a5,0(a5)
   12f92:	ffe5                	bnez	a5,0x12f8a
   12f94:	4501                	li	a0,0
   12f96:	70a6                	ld	ra,104(sp)
   12f98:	7406                	ld	s0,96(sp)
   12f9a:	64e6                	ld	s1,88(sp)
   12f9c:	6946                	ld	s2,80(sp)
   12f9e:	69a6                	ld	s3,72(sp)
   12fa0:	6a06                	ld	s4,64(sp)
   12fa2:	7ae2                	ld	s5,56(sp)
   12fa4:	7b42                	ld	s6,48(sp)
   12fa6:	7c02                	ld	s8,32(sp)
   12fa8:	6ce2                	ld	s9,24(sp)
   12faa:	6165                	addi	sp,sp,112
   12fac:	8082                	ret
   12fae:	e86a                	sd	s10,16(sp)
   12fb0:	064b8d13          	addi	s10,s7,100
   12fb4:	856a                	mv	a0,s10
   12fb6:	e46e                	sd	s11,8(sp)
   12fb8:	7af050ef          	jal	0x18f66
   12fbc:	8daa                	mv	s11,a0
   12fbe:	c169                	beqz	a0,0x13080
   12fc0:	06450a93          	addi	s5,a0,100
   12fc4:	0604c963          	bltz	s1,0x13036
   12fc8:	865e                	mv	a2,s7
   12fca:	009c05b3          	add	a1,s8,s1
   12fce:	8556                	mv	a0,s5
   12fd0:	72c070ef          	jal	0x1a6fc
   12fd4:	855a                	mv	a0,s6
   12fd6:	4ce060ef          	jal	0x194a4
   12fda:	9d6e                	add	s10,s10,s11
   12fdc:	0189b683          	ld	a3,24(s3)
   12fe0:	05b9b423          	sd	s11,72(s3)
   12fe4:	05a9bc23          	sd	s10,88(s3)
   12fe8:	0609b783          	ld	a5,96(s3)
   12fec:	7ba2                	ld	s7,40(sp)
   12fee:	6d42                	ld	s10,16(sp)
   12ff0:	6da2                	ld	s11,8(sp)
   12ff2:	40da0933          	sub	s2,s4,a3
   12ff6:	0559b823          	sd	s5,80(s3)
   12ffa:	f7d1                	bnez	a5,0x12f86
   12ffc:	bf61                	j	0x12f94
   12ffe:	7ba2                	ld	s7,40(sp)
   13000:	40900633          	neg	a2,s1
   13004:	009c85b3          	add	a1,s9,s1
   13008:	78e070ef          	jal	0x1a796
   1300c:	0189b583          	ld	a1,24(s3)
   13010:	0489b503          	ld	a0,72(s3)
   13014:	409a84b3          	sub	s1,s5,s1
   13018:	40ba0633          	sub	a2,s4,a1
   1301c:	9526                	add	a0,a0,s1
   1301e:	6de070ef          	jal	0x1a6fc
   13022:	0489b703          	ld	a4,72(s3)
   13026:	0189b683          	ld	a3,24(s3)
   1302a:	0609b783          	ld	a5,96(s3)
   1302e:	9aba                	add	s5,s5,a4
   13030:	40da0933          	sub	s2,s4,a3
   13034:	b7c9                	j	0x12ff6
   13036:	40900bb3          	neg	s7,s1
   1303a:	865e                	mv	a2,s7
   1303c:	009c85b3          	add	a1,s9,s1
   13040:	8556                	mv	a0,s5
   13042:	6ba070ef          	jal	0x1a6fc
   13046:	864a                	mv	a2,s2
   13048:	85e2                	mv	a1,s8
   1304a:	955e                	add	a0,a0,s7
   1304c:	6b0070ef          	jal	0x1a6fc
   13050:	b751                	j	0x12fd4
   13052:	865e                	mv	a2,s7
   13054:	009c05b3          	add	a1,s8,s1
   13058:	6a4070ef          	jal	0x1a6fc
   1305c:	0489b703          	ld	a4,72(s3)
   13060:	0189b683          	ld	a3,24(s3)
   13064:	0609b783          	ld	a5,96(s3)
   13068:	7ba2                	ld	s7,40(sp)
   1306a:	9aba                	add	s5,s5,a4
   1306c:	40da0933          	sub	s2,s4,a3
   13070:	b759                	j	0x12ff6
   13072:	00094563          	bltz	s2,0x1307c
   13076:	05953823          	sd	s9,80(a0)
   1307a:	bf29                	j	0x12f94
   1307c:	8566                	mv	a0,s9
   1307e:	b749                	j	0x13000
   13080:	7ba2                	ld	s7,40(sp)
   13082:	6d42                	ld	s10,16(sp)
   13084:	6da2                	ld	s11,8(sp)
   13086:	557d                	li	a0,-1
   13088:	b739                	j	0x12f96
   1308a:	7159                	addi	sp,sp,-112
   1308c:	f0a2                	sd	s0,96(sp)
   1308e:	eca6                	sd	s1,88(sp)
   13090:	1880                	addi	s0,sp,112
   13092:	e8ca                	sd	s2,80(sp)
   13094:	e4ce                	sd	s3,72(sp)
   13096:	e0d2                	sd	s4,64(sp)
   13098:	fc56                	sd	s5,56(sp)
   1309a:	f486                	sd	ra,104(sp)
   1309c:	0006f997          	auipc	s3,0x6f
   130a0:	b749b983          	ld	s3,-1164(s3) # 0x81c10
   130a4:	0009b783          	ld	a5,0(s3)
   130a8:	faf43c23          	sd	a5,-72(s0)
   130ac:	4781                	li	a5,0
   130ae:	f9840a13          	addi	s4,s0,-104
   130b2:	00000797          	auipc	a5,0x0
   130b6:	db678793          	addi	a5,a5,-586 # 0x12e68
   130ba:	84aa                	mv	s1,a0
   130bc:	8552                	mv	a0,s4
   130be:	f8f43c23          	sd	a5,-104(s0)
   130c2:	fa043023          	sd	zero,-96(s0)
   130c6:	258020ef          	jal	0x1531e
   130ca:	8a022703          	lw	a4,-1888(tp) # 0xfffffffffffff8a0
   130ce:	4c818913          	addi	s2,gp,1224
   130d2:	01093783          	ld	a5,16(s2)
   130d6:	8a020a93          	addi	s5,tp,-1888 # 0xfffffffffffff8a0
   130da:	e319                	bnez	a4,0x130e0
   130dc:	18078b63          	beqz	a5,0x13272
   130e0:	16fa8763          	beq	s5,a5,0x1324e
   130e4:	4705                	li	a4,1
   130e6:	00890613          	addi	a2,s2,8
   130ea:	140627af          	lr.w.aq	a5,(a2)
   130ee:	e781                	bnez	a5,0x130f6
   130f0:	18e626af          	sc.w	a3,a4,(a2)
   130f4:	fafd                	bnez	a3,0x130ea
   130f6:	2781                	sext.w	a5,a5
   130f8:	1a079f63          	bnez	a5,0x132b6
   130fc:	01593823          	sd	s5,16(s2)
   13100:	4090                	lw	a2,0(s1)
   13102:	66a1                	lui	a3,0x8
   13104:	00993023          	sd	s1,0(s2)
   13108:	8ef1                	and	a3,a3,a2
   1310a:	e6cd                	bnez	a3,0x131b4
   1310c:	64c8                	ld	a0,136(s1)
   1310e:	8a022583          	lw	a1,-1888(tp) # 0xfffffffffffff8a0
   13112:	8a020a93          	addi	s5,tp,-1888 # 0xfffffffffffff8a0
   13116:	651c                	ld	a5,8(a0)
   13118:	c5f1                	beqz	a1,0x131e4
   1311a:	1afa8363          	beq	s5,a5,0x132c0
   1311e:	4705                	li	a4,1
   13120:	140527af          	lr.w.aq	a5,(a0)
   13124:	e781                	bnez	a5,0x1312c
   13126:	18e526af          	sc.w	a3,a4,(a0)
   1312a:	fafd                	bnez	a3,0x13120
   1312c:	2781                	sext.w	a5,a5
   1312e:	1a079d63          	bnez	a5,0x132e8
   13132:	64c8                	ld	a0,136(s1)
   13134:	0006f817          	auipc	a6,0x6f
   13138:	edc80813          	addi	a6,a6,-292 # 0x82010
   1313c:	4090                	lw	a2,0(s1)
   1313e:	00083703          	ld	a4,0(a6)
   13142:	66a1                	lui	a3,0x8
   13144:	01553423          	sd	s5,8(a0)
   13148:	8ef1                	and	a3,a3,a2
   1314a:	cb11                	beqz	a4,0x1315e
   1314c:	773c                	ld	a5,104(a4)
   1314e:	0ee48663          	beq	s1,a4,0x1323a
   13152:	c791                	beqz	a5,0x1315e
   13154:	10f48363          	beq	s1,a5,0x1325a
   13158:	873e                	mv	a4,a5
   1315a:	77bc                	ld	a5,104(a5)
   1315c:	ffe5                	bnez	a5,0x13154
   1315e:	f7f67613          	andi	a2,a2,-129
   13162:	c090                	sw	a2,0(s1)
   13164:	8a022583          	lw	a1,-1888(tp) # 0xfffffffffffff8a0
   13168:	e2bd                	bnez	a3,0x131ce
   1316a:	64c8                	ld	a0,136(s1)
   1316c:	4158                	lw	a4,4(a0)
   1316e:	c9d9                	beqz	a1,0x13204
   13170:	12070163          	beqz	a4,0x13292
   13174:	fff7079b          	addiw	a5,a4,-1
   13178:	c15c                	sw	a5,4(a0)
   1317a:	00c92683          	lw	a3,12(s2)
   1317e:	4c01b423          	sd	zero,1224(gp)
   13182:	cec1                	beqz	a3,0x1321a
   13184:	fff6879b          	addiw	a5,a3,-1 # 0x7fff
   13188:	00f92623          	sw	a5,12(s2)
   1318c:	8552                	mv	a0,s4
   1318e:	1f0020ef          	jal	0x1537e
   13192:	fb843703          	ld	a4,-72(s0)
   13196:	0009b783          	ld	a5,0(s3)
   1319a:	8fb9                	xor	a5,a5,a4
   1319c:	4701                	li	a4,0
   1319e:	14079863          	bnez	a5,0x132ee
   131a2:	70a6                	ld	ra,104(sp)
   131a4:	7406                	ld	s0,96(sp)
   131a6:	64e6                	ld	s1,88(sp)
   131a8:	6946                	ld	s2,80(sp)
   131aa:	69a6                	ld	s3,72(sp)
   131ac:	6a06                	ld	s4,64(sp)
   131ae:	7ae2                	ld	s5,56(sp)
   131b0:	6165                	addi	sp,sp,112
   131b2:	8082                	ret
   131b4:	0006f817          	auipc	a6,0x6f
   131b8:	e5c80813          	addi	a6,a6,-420 # 0x82010
   131bc:	00083703          	ld	a4,0(a6)
   131c0:	66a1                	lui	a3,0x8
   131c2:	f749                	bnez	a4,0x1314c
   131c4:	f7f67613          	andi	a2,a2,-129
   131c8:	8a022583          	lw	a1,-1888(tp) # 0xfffffffffffff8a0
   131cc:	c090                	sw	a2,0(s1)
   131ce:	4c01b423          	sd	zero,1224(gp)
   131d2:	00c92683          	lw	a3,12(s2)
   131d6:	f5d5                	bnez	a1,0x13182
   131d8:	f6d5                	bnez	a3,0x13184
   131da:	4c01bc23          	sd	zero,1240(gp)
   131de:	4c01a823          	sw	zero,1232(gp)
   131e2:	b76d                	j	0x1318c
   131e4:	fb9d                	bnez	a5,0x1311a
   131e6:	0006f817          	auipc	a6,0x6f
   131ea:	e2a80813          	addi	a6,a6,-470 # 0x82010
   131ee:	00083703          	ld	a4,0(a6)
   131f2:	4785                	li	a5,1
   131f4:	c11c                	sw	a5,0(a0)
   131f6:	01553423          	sd	s5,8(a0)
   131fa:	fb29                	bnez	a4,0x1314c
   131fc:	f7f67613          	andi	a2,a2,-129
   13200:	4158                	lw	a4,4(a0)
   13202:	c090                	sw	a2,0(s1)
   13204:	ef2d                	bnez	a4,0x1327e
   13206:	00c92683          	lw	a3,12(s2)
   1320a:	00053423          	sd	zero,8(a0)
   1320e:	00052023          	sw	zero,0(a0)
   13212:	4c01b423          	sd	zero,1224(gp)
   13216:	f6bd                	bnez	a3,0x13184
   13218:	b7c9                	j	0x131da
   1321a:	4c01bc23          	sd	zero,1240(gp)
   1321e:	00890713          	addi	a4,s2,8
   13222:	87b6                	mv	a5,a3
   13224:	0af727af          	amoswap.w.rl	a5,a5,(a4)
   13228:	4705                	li	a4,1
   1322a:	2781                	sext.w	a5,a5
   1322c:	f6f750e3          	bge	a4,a5,0x1318c
   13230:	4d018513          	addi	a0,gp,1232
   13234:	25a020ef          	jal	0x1548e
   13238:	bf91                	j	0x1318c
   1323a:	00f83023          	sd	a5,0(a6)
   1323e:	f7f67613          	andi	a2,a2,-129
   13242:	c090                	sw	a2,0(s1)
   13244:	8a022583          	lw	a1,-1888(tp) # 0xfffffffffffff8a0
   13248:	f20681e3          	beqz	a3,0x1316a
   1324c:	b749                	j	0x131ce
   1324e:	00c92783          	lw	a5,12(s2)
   13252:	2785                	addiw	a5,a5,1
   13254:	00f92623          	sw	a5,12(s2)
   13258:	b565                	j	0x13100
   1325a:	74bc                	ld	a5,104(s1)
   1325c:	f7f67613          	andi	a2,a2,-129
   13260:	06870713          	addi	a4,a4,104
   13264:	e31c                	sd	a5,0(a4)
   13266:	c090                	sw	a2,0(s1)
   13268:	8a022583          	lw	a1,-1888(tp) # 0xfffffffffffff8a0
   1326c:	ee068fe3          	beqz	a3,0x1316a
   13270:	bfb9                	j	0x131ce
   13272:	4785                	li	a5,1
   13274:	00f92423          	sw	a5,8(s2)
   13278:	01593823          	sd	s5,16(s2)
   1327c:	b551                	j	0x13100
   1327e:	fff7079b          	addiw	a5,a4,-1
   13282:	c15c                	sw	a5,4(a0)
   13284:	00c92683          	lw	a3,12(s2)
   13288:	4c01b423          	sd	zero,1224(gp)
   1328c:	ee069ce3          	bnez	a3,0x13184
   13290:	b7a9                	j	0x131da
   13292:	00053423          	sd	zero,8(a0)
   13296:	87ba                	mv	a5,a4
   13298:	0af527af          	amoswap.w.rl	a5,a5,(a0)
   1329c:	4705                	li	a4,1
   1329e:	2781                	sext.w	a5,a5
   132a0:	02f74f63          	blt	a4,a5,0x132de
   132a4:	8a022583          	lw	a1,-1888(tp) # 0xfffffffffffff8a0
   132a8:	4c01b423          	sd	zero,1224(gp)
   132ac:	00c92683          	lw	a3,12(s2)
   132b0:	ec0599e3          	bnez	a1,0x13182
   132b4:	b715                	j	0x131d8
   132b6:	4d018513          	addi	a0,gp,1232
   132ba:	12e020ef          	jal	0x153e8
   132be:	bd3d                	j	0x130fc
   132c0:	415c                	lw	a5,4(a0)
   132c2:	0006f817          	auipc	a6,0x6f
   132c6:	d4e80813          	addi	a6,a6,-690 # 0x82010
   132ca:	00083703          	ld	a4,0(a6)
   132ce:	2785                	addiw	a5,a5,1
   132d0:	c15c                	sw	a5,4(a0)
   132d2:	e6071de3          	bnez	a4,0x1314c
   132d6:	f7f67613          	andi	a2,a2,-129
   132da:	c090                	sw	a2,0(s1)
   132dc:	bd41                	j	0x1316c
   132de:	1b0020ef          	jal	0x1548e
   132e2:	8a022583          	lw	a1,-1888(tp) # 0xfffffffffffff8a0
   132e6:	b7c9                	j	0x132a8
   132e8:	100020ef          	jal	0x153e8
   132ec:	b599                	j	0x13132
   132ee:	241090ef          	jal	0x1cd2e
   132f2:	1141                	addi	sp,sp,-16
   132f4:	e422                	sd	s0,8(sp)
   132f6:	0800                	addi	s0,sp,16
   132f8:	411c                	lw	a5,0(a0)
   132fa:	0807f793          	andi	a5,a5,128
   132fe:	e781                	bnez	a5,0x13306
   13300:	6422                	ld	s0,8(sp)
   13302:	0141                	addi	sp,sp,16
   13304:	8082                	ret
   13306:	6422                	ld	s0,8(sp)
   13308:	0141                	addi	sp,sp,16
   1330a:	b341                	j	0x1308a
   1330c:	7159                	addi	sp,sp,-112
   1330e:	f0a2                	sd	s0,96(sp)
   13310:	e4ce                	sd	s3,72(sp)
   13312:	1880                	addi	s0,sp,112
   13314:	f486                	sd	ra,104(sp)
   13316:	411c                	lw	a5,0(a0)
   13318:	0006f997          	auipc	s3,0x6f
   1331c:	8f89b983          	ld	s3,-1800(s3) # 0x81c10
   13320:	0009b703          	ld	a4,0(s3)
   13324:	fae43c23          	sd	a4,-72(s0)
   13328:	4701                	li	a4,0
   1332a:	0807f713          	andi	a4,a5,128
   1332e:	cf11                	beqz	a4,0x1334a
   13330:	fb843703          	ld	a4,-72(s0)
   13334:	0009b783          	ld	a5,0(s3)
   13338:	8fb9                	xor	a5,a5,a4
   1333a:	4701                	li	a4,0
   1333c:	20079263          	bnez	a5,0x13540
   13340:	70a6                	ld	ra,104(sp)
   13342:	7406                	ld	s0,96(sp)
   13344:	69a6                	ld	s3,72(sp)
   13346:	6165                	addi	sp,sp,112
   13348:	8082                	ret
   1334a:	eca6                	sd	s1,88(sp)
   1334c:	e8ca                	sd	s2,80(sp)
   1334e:	e0d2                	sd	s4,64(sp)
   13350:	fc56                	sd	s5,56(sp)
   13352:	0807e793          	ori	a5,a5,128
   13356:	f9840a93          	addi	s5,s0,-104
   1335a:	c11c                	sw	a5,0(a0)
   1335c:	84aa                	mv	s1,a0
   1335e:	00000797          	auipc	a5,0x0
   13362:	b0a78793          	addi	a5,a5,-1270 # 0x12e68
   13366:	8556                	mv	a0,s5
   13368:	f8f43c23          	sd	a5,-104(s0)
   1336c:	fa043023          	sd	zero,-96(s0)
   13370:	7af010ef          	jal	0x1531e
   13374:	8a022703          	lw	a4,-1888(tp) # 0xfffffffffffff8a0
   13378:	4c818913          	addi	s2,gp,1224
   1337c:	01093783          	ld	a5,16(s2)
   13380:	8a020a13          	addi	s4,tp,-1888 # 0xfffffffffffff8a0
   13384:	e319                	bnez	a4,0x1338a
   13386:	10078f63          	beqz	a5,0x134a4
   1338a:	06fa0963          	beq	s4,a5,0x133fc
   1338e:	4705                	li	a4,1
   13390:	00890613          	addi	a2,s2,8
   13394:	140627af          	lr.w.aq	a5,(a2)
   13398:	e781                	bnez	a5,0x133a0
   1339a:	18e626af          	sc.w	a3,a4,(a2)
   1339e:	fafd                	bnez	a3,0x13394
   133a0:	2781                	sext.w	a5,a5
   133a2:	18079263          	bnez	a5,0x13526
   133a6:	8a022703          	lw	a4,-1888(tp) # 0xfffffffffffff8a0
   133aa:	01493823          	sd	s4,16(s2)
   133ae:	409c                	lw	a5,0(s1)
   133b0:	00993023          	sd	s1,0(s2)
   133b4:	03079693          	slli	a3,a5,0x30
   133b8:	0406d863          	bgez	a3,0x13408
   133bc:	0006f797          	auipc	a5,0x6f
   133c0:	c5478793          	addi	a5,a5,-940 # 0x82010
   133c4:	6394                	ld	a3,0(a5)
   133c6:	e384                	sd	s1,0(a5)
   133c8:	f4b4                	sd	a3,104(s1)
   133ca:	4c01b423          	sd	zero,1224(gp)
   133ce:	00c92603          	lw	a2,12(s2)
   133d2:	c73d                	beqz	a4,0x13440
   133d4:	ee25                	bnez	a2,0x1344c
   133d6:	4c01bc23          	sd	zero,1240(gp)
   133da:	00890713          	addi	a4,s2,8
   133de:	87b2                	mv	a5,a2
   133e0:	0af727af          	amoswap.w.rl	a5,a5,(a4)
   133e4:	4705                	li	a4,1
   133e6:	2781                	sext.w	a5,a5
   133e8:	14f74763          	blt	a4,a5,0x13536
   133ec:	8556                	mv	a0,s5
   133ee:	791010ef          	jal	0x1537e
   133f2:	64e6                	ld	s1,88(sp)
   133f4:	6946                	ld	s2,80(sp)
   133f6:	6a06                	ld	s4,64(sp)
   133f8:	7ae2                	ld	s5,56(sp)
   133fa:	bf1d                	j	0x13330
   133fc:	00c92783          	lw	a5,12(s2)
   13400:	2785                	addiw	a5,a5,1
   13402:	00f92623          	sw	a5,12(s2)
   13406:	b765                	j	0x133ae
   13408:	64c8                	ld	a0,136(s1)
   1340a:	8a020a13          	addi	s4,tp,-1888 # 0xfffffffffffff8a0
   1340e:	651c                	ld	a5,8(a0)
   13410:	e339                	bnez	a4,0x13456
   13412:	4701                	li	a4,0
   13414:	e3a9                	bnez	a5,0x13456
   13416:	0006f717          	auipc	a4,0x6f
   1341a:	bfa70713          	addi	a4,a4,-1030 # 0x82010
   1341e:	6314                	ld	a3,0(a4)
   13420:	4785                	li	a5,1
   13422:	c11c                	sw	a5,0(a0)
   13424:	01453423          	sd	s4,8(a0)
   13428:	4150                	lw	a2,4(a0)
   1342a:	f4b4                	sd	a3,104(s1)
   1342c:	e304                	sd	s1,0(a4)
   1342e:	e25d                	bnez	a2,0x134d4
   13430:	00c92603          	lw	a2,12(s2)
   13434:	00053423          	sd	zero,8(a0)
   13438:	00052023          	sw	zero,0(a0)
   1343c:	4c01b423          	sd	zero,1224(gp)
   13440:	e611                	bnez	a2,0x1344c
   13442:	4c01bc23          	sd	zero,1240(gp)
   13446:	4c01a823          	sw	zero,1232(gp)
   1344a:	b74d                	j	0x133ec
   1344c:	fff6079b          	addiw	a5,a2,-1
   13450:	00f92623          	sw	a5,12(s2)
   13454:	bf61                	j	0x133ec
   13456:	0b478863          	beq	a5,s4,0x13506
   1345a:	4705                	li	a4,1
   1345c:	140527af          	lr.w.aq	a5,(a0)
   13460:	e781                	bnez	a5,0x13468
   13462:	18e526af          	sc.w	a3,a4,(a0)
   13466:	fafd                	bnez	a3,0x1345c
   13468:	2781                	sext.w	a5,a5
   1346a:	e3f9                	bnez	a5,0x13530
   1346c:	0006f797          	auipc	a5,0x6f
   13470:	ba478793          	addi	a5,a5,-1116 # 0x82010
   13474:	64c8                	ld	a0,136(s1)
   13476:	6390                	ld	a2,0(a5)
   13478:	4094                	lw	a3,0(s1)
   1347a:	01453423          	sd	s4,8(a0)
   1347e:	8a022703          	lw	a4,-1888(tp) # 0xfffffffffffff8a0
   13482:	e384                	sd	s1,0(a5)
   13484:	f4b0                	sd	a2,104(s1)
   13486:	03069793          	slli	a5,a3,0x30
   1348a:	f407c0e3          	bltz	a5,0x133ca
   1348e:	4150                	lw	a2,4(a0)
   13490:	df59                	beqz	a4,0x1342e
   13492:	ca29                	beqz	a2,0x134e4
   13494:	fff6079b          	addiw	a5,a2,-1
   13498:	c15c                	sw	a5,4(a0)
   1349a:	00c92603          	lw	a2,12(s2)
   1349e:	4c01b423          	sd	zero,1224(gp)
   134a2:	bf0d                	j	0x133d4
   134a4:	409c                	lw	a5,0(s1)
   134a6:	4705                	li	a4,1
   134a8:	00e92423          	sw	a4,8(s2)
   134ac:	01493823          	sd	s4,16(s2)
   134b0:	00993023          	sd	s1,0(s2)
   134b4:	03079713          	slli	a4,a5,0x30
   134b8:	06075263          	bgez	a4,0x1351c
   134bc:	0006f717          	auipc	a4,0x6f
   134c0:	b5470713          	addi	a4,a4,-1196 # 0x82010
   134c4:	6314                	ld	a3,0(a4)
   134c6:	00c92603          	lw	a2,12(s2)
   134ca:	e304                	sd	s1,0(a4)
   134cc:	f4b4                	sd	a3,104(s1)
   134ce:	4c01b423          	sd	zero,1224(gp)
   134d2:	b7bd                	j	0x13440
   134d4:	fff6079b          	addiw	a5,a2,-1
   134d8:	c15c                	sw	a5,4(a0)
   134da:	00c92603          	lw	a2,12(s2)
   134de:	4c01b423          	sd	zero,1224(gp)
   134e2:	bfb9                	j	0x13440
   134e4:	00053423          	sd	zero,8(a0)
   134e8:	87b2                	mv	a5,a2
   134ea:	0af527af          	amoswap.w.rl	a5,a5,(a0)
   134ee:	4705                	li	a4,1
   134f0:	2781                	sext.w	a5,a5
   134f2:	00f74563          	blt	a4,a5,0x134fc
   134f6:	8a022703          	lw	a4,-1888(tp) # 0xfffffffffffff8a0
   134fa:	bdc1                	j	0x133ca
   134fc:	793010ef          	jal	0x1548e
   13500:	8a022703          	lw	a4,-1888(tp) # 0xfffffffffffff8a0
   13504:	b5d9                	j	0x133ca
   13506:	415c                	lw	a5,4(a0)
   13508:	0006f697          	auipc	a3,0x6f
   1350c:	b0868693          	addi	a3,a3,-1272 # 0x82010
   13510:	6290                	ld	a2,0(a3)
   13512:	2785                	addiw	a5,a5,1
   13514:	c15c                	sw	a5,4(a0)
   13516:	f4b0                	sd	a2,104(s1)
   13518:	e284                	sd	s1,0(a3)
   1351a:	bf95                	j	0x1348e
   1351c:	64c8                	ld	a0,136(s1)
   1351e:	8a020a13          	addi	s4,tp,-1888 # 0xfffffffffffff8a0
   13522:	651c                	ld	a5,8(a0)
   13524:	b5fd                	j	0x13412
   13526:	4d018513          	addi	a0,gp,1232
   1352a:	6bf010ef          	jal	0x153e8
   1352e:	bda5                	j	0x133a6
   13530:	6b9010ef          	jal	0x153e8
   13534:	bf25                	j	0x1346c
   13536:	4d018513          	addi	a0,gp,1232
   1353a:	755010ef          	jal	0x1548e
   1353e:	b57d                	j	0x133ec
   13540:	eca6                	sd	s1,88(sp)
   13542:	e8ca                	sd	s2,80(sp)
   13544:	e0d2                	sd	s4,64(sp)
   13546:	fc56                	sd	s5,56(sp)
   13548:	7e6090ef          	jal	0x1cd2e
   1354c:	1141                	addi	sp,sp,-16
   1354e:	e422                	sd	s0,8(sp)
   13550:	0800                	addi	s0,sp,16
   13552:	6d18                	ld	a4,24(a0)
   13554:	713c                	ld	a5,96(a0)
   13556:	40e58533          	sub	a0,a1,a4
   1355a:	c799                	beqz	a5,0x13568
   1355c:	4b98                	lw	a4,16(a5)
   1355e:	00a75363          	bge	a4,a0,0x13564
   13562:	853a                	mv	a0,a4
   13564:	639c                	ld	a5,0(a5)
   13566:	fbfd                	bnez	a5,0x1355c
   13568:	6422                	ld	s0,8(sp)
   1356a:	0141                	addi	sp,sp,16
   1356c:	8082                	ret
   1356e:	1141                	addi	sp,sp,-16
   13570:	e422                	sd	s0,8(sp)
   13572:	0800                	addi	s0,sp,16
   13574:	411c                	lw	a5,0(a0)
   13576:	6538                	ld	a4,72(a0)
   13578:	6d34                	ld	a3,88(a0)
   1357a:	690c                	ld	a1,16(a0)
   1357c:	6d10                	ld	a2,24(a0)
   1357e:	6422                	ld	s0,8(sp)
   13580:	eff7f793          	andi	a5,a5,-257
   13584:	c11c                	sw	a5,0(a0)
   13586:	ed2c                	sd	a1,88(a0)
   13588:	e530                	sd	a2,72(a0)
   1358a:	e518                	sd	a4,8(a0)
   1358c:	e914                	sd	a3,16(a0)
   1358e:	ed18                	sd	a4,24(a0)
   13590:	0141                	addi	sp,sp,16
   13592:	8082                	ret
   13594:	1141                	addi	sp,sp,-16
   13596:	e422                	sd	s0,8(sp)
   13598:	0800                	addi	s0,sp,16
   1359a:	411c                	lw	a5,0(a0)
   1359c:	6d38                	ld	a4,88(a0)
   1359e:	6534                	ld	a3,72(a0)
   135a0:	690c                	ld	a1,16(a0)
   135a2:	6d10                	ld	a2,24(a0)
   135a4:	6422                	ld	s0,8(sp)
   135a6:	1007e793          	ori	a5,a5,256
   135aa:	c11c                	sw	a5,0(a0)
   135ac:	ed2c                	sd	a1,88(a0)
   135ae:	e530                	sd	a2,72(a0)
   135b0:	e518                	sd	a4,8(a0)
   135b2:	e918                	sd	a4,16(a0)
   135b4:	ed14                	sd	a3,24(a0)
   135b6:	0141                	addi	sp,sp,16
   135b8:	8082                	ret
   135ba:	1101                	addi	sp,sp,-32
   135bc:	e822                	sd	s0,16(sp)
   135be:	e426                	sd	s1,8(sp)
   135c0:	ec06                	sd	ra,24(sp)
   135c2:	1000                	addi	s0,sp,32
   135c4:	751c                	ld	a5,40(a0)
   135c6:	7118                	ld	a4,32(a0)
   135c8:	84aa                	mv	s1,a0
   135ca:	02f77a63          	bgeu	a4,a5,0x135fe
   135ce:	e04a                	sd	s2,0(sp)
   135d0:	0d853903          	ld	s2,216(a0)
   135d4:	6785                	lui	a5,0x1
   135d6:	0006c717          	auipc	a4,0x6c
   135da:	7aa70713          	addi	a4,a4,1962 # 0x7fd80
   135de:	40e90733          	sub	a4,s2,a4
   135e2:	92f78793          	addi	a5,a5,-1745 # 0x92f
   135e6:	04e7e763          	bltu	a5,a4,0x13634
   135ea:	01893783          	ld	a5,24(s2)
   135ee:	55fd                	li	a1,-1
   135f0:	8526                	mv	a0,s1
   135f2:	9782                	jalr	a5
   135f4:	57fd                	li	a5,-1
   135f6:	04f50263          	beq	a0,a5,0x1363a
   135fa:	749c                	ld	a5,40(s1)
   135fc:	6902                	ld	s2,0(sp)
   135fe:	4098                	lw	a4,0(s1)
   13600:	10077693          	andi	a3,a4,256
   13604:	e68d                	bnez	a3,0x1362e
   13606:	7c90                	ld	a2,56(s1)
   13608:	6894                	ld	a3,16(s1)
   1360a:	ec90                	sd	a2,24(s1)
   1360c:	00f6f363          	bgeu	a3,a5,0x13612
   13610:	e89c                	sd	a5,16(s1)
   13612:	76fd                	lui	a3,0xfffff
   13614:	7ff68693          	addi	a3,a3,2047 # 0xfffffffffffff7ff
   13618:	8f75                	and	a4,a4,a3
   1361a:	e49c                	sd	a5,8(s1)
   1361c:	f89c                	sd	a5,48(s1)
   1361e:	f09c                	sd	a5,32(s1)
   13620:	c098                	sw	a4,0(s1)
   13622:	4501                	li	a0,0
   13624:	60e2                	ld	ra,24(sp)
   13626:	6442                	ld	s0,16(sp)
   13628:	64a2                	ld	s1,8(sp)
   1362a:	6105                	addi	sp,sp,32
   1362c:	8082                	ret
   1362e:	68b4                	ld	a3,80(s1)
   13630:	ec94                	sd	a3,24(s1)
   13632:	b7c5                	j	0x13612
   13634:	cc1fd0ef          	jal	0x112f4
   13638:	bf4d                	j	0x135ea
   1363a:	6902                	ld	s2,0(sp)
   1363c:	b7e5                	j	0x13624
   1363e:	1101                	addi	sp,sp,-32
   13640:	e822                	sd	s0,16(sp)
   13642:	e426                	sd	s1,8(sp)
   13644:	ec06                	sd	ra,24(sp)
   13646:	1000                	addi	s0,sp,32
   13648:	411c                	lw	a5,0(a0)
   1364a:	84aa                	mv	s1,a0
   1364c:	6528                	ld	a0,72(a0)
   1364e:	1007f713          	andi	a4,a5,256
   13652:	cb11                	beqz	a4,0x13666
   13654:	6c98                	ld	a4,24(s1)
   13656:	6cb4                	ld	a3,88(s1)
   13658:	eff7f793          	andi	a5,a5,-257
   1365c:	ec88                	sd	a0,24(s1)
   1365e:	e488                	sd	a0,8(s1)
   13660:	c09c                	sw	a5,0(s1)
   13662:	e894                	sd	a3,16(s1)
   13664:	853a                	mv	a0,a4
   13666:	63f050ef          	jal	0x194a4
   1366a:	60e2                	ld	ra,24(sp)
   1366c:	6442                	ld	s0,16(sp)
   1366e:	0404b423          	sd	zero,72(s1)
   13672:	0404bc23          	sd	zero,88(s1)
   13676:	0404b823          	sd	zero,80(s1)
   1367a:	64a2                	ld	s1,8(sp)
   1367c:	6105                	addi	sp,sp,32
   1367e:	8082                	ret
   13680:	7179                	addi	sp,sp,-48
   13682:	f022                	sd	s0,32(sp)
   13684:	f406                	sd	ra,40(sp)
   13686:	ec26                	sd	s1,24(sp)
   13688:	1800                	addi	s0,sp,48
   1368a:	0c052783          	lw	a5,192(a0)
   1368e:	e781                	bnez	a5,0x13696
   13690:	57fd                	li	a5,-1
   13692:	0cf52023          	sw	a5,192(a0)
   13696:	6d64                	ld	s1,216(a0)
   13698:	6785                	lui	a5,0x1
   1369a:	0006c717          	auipc	a4,0x6c
   1369e:	6e670713          	addi	a4,a4,1766 # 0x7fd80
   136a2:	40e48733          	sub	a4,s1,a4
   136a6:	92f78793          	addi	a5,a5,-1745 # 0x92f
   136aa:	00e7e863          	bltu	a5,a4,0x136ba
   136ae:	7402                	ld	s0,32(sp)
   136b0:	6c9c                	ld	a5,24(s1)
   136b2:	70a2                	ld	ra,40(sp)
   136b4:	64e2                	ld	s1,24(sp)
   136b6:	6145                	addi	sp,sp,48
   136b8:	8782                	jr	a5
   136ba:	fcb43823          	sd	a1,-48(s0)
   136be:	fca43c23          	sd	a0,-40(s0)
   136c2:	c33fd0ef          	jal	0x112f4
   136c6:	fd043583          	ld	a1,-48(s0)
   136ca:	fd843503          	ld	a0,-40(s0)
   136ce:	7402                	ld	s0,32(sp)
   136d0:	6c9c                	ld	a5,24(s1)
   136d2:	70a2                	ld	ra,40(sp)
   136d4:	64e2                	ld	s1,24(sp)
   136d6:	6145                	addi	sp,sp,48
   136d8:	8782                	jr	a5
   136da:	1101                	addi	sp,sp,-32
   136dc:	e822                	sd	s0,16(sp)
   136de:	e426                	sd	s1,8(sp)
   136e0:	ec06                	sd	ra,24(sp)
   136e2:	1000                	addi	s0,sp,32
   136e4:	0c052783          	lw	a5,192(a0)
   136e8:	84aa                	mv	s1,a0
   136ea:	efa5                	bnez	a5,0x13762
   136ec:	57fd                	li	a5,-1
   136ee:	0cf52023          	sw	a5,192(a0)
   136f2:	409c                	lw	a5,0(s1)
   136f4:	03479713          	slli	a4,a5,0x34
   136f8:	0a074a63          	bltz	a4,0x137ac
   136fc:	649c                	ld	a5,8(s1)
   136fe:	6898                	ld	a4,16(s1)
   13700:	08e7ef63          	bltu	a5,a4,0x1379e
   13704:	409c                	lw	a5,0(s1)
   13706:	1007f693          	andi	a3,a5,256
   1370a:	ce91                	beqz	a3,0x13726
   1370c:	64b4                	ld	a3,72(s1)
   1370e:	6cb0                	ld	a2,88(s1)
   13710:	6c8c                	ld	a1,24(s1)
   13712:	eff7f793          	andi	a5,a5,-257
   13716:	c09c                	sw	a5,0(s1)
   13718:	e890                	sd	a2,16(s1)
   1371a:	ecb8                	sd	a4,88(s1)
   1371c:	ec94                	sd	a3,24(s1)
   1371e:	e4ac                	sd	a1,72(s1)
   13720:	e494                	sd	a3,8(s1)
   13722:	08c6ed63          	bltu	a3,a2,0x137bc
   13726:	70bc                	ld	a5,96(s1)
   13728:	c3b1                	beqz	a5,0x1376c
   1372a:	688c                	ld	a1,16(s1)
   1372c:	8526                	mv	a0,s1
   1372e:	ff2ff0ef          	jal	0x12f20
   13732:	e91d                	bnez	a0,0x13768
   13734:	e04a                	sd	s2,0(sp)
   13736:	0d84b903          	ld	s2,216(s1)
   1373a:	6785                	lui	a5,0x1
   1373c:	0006c717          	auipc	a4,0x6c
   13740:	64470713          	addi	a4,a4,1604 # 0x7fd80
   13744:	40e90733          	sub	a4,s2,a4
   13748:	92f78793          	addi	a5,a5,-1745 # 0x92f
   1374c:	06e7ef63          	bltu	a5,a4,0x137ca
   13750:	6442                	ld	s0,16(sp)
   13752:	02093783          	ld	a5,32(s2)
   13756:	60e2                	ld	ra,24(sp)
   13758:	6902                	ld	s2,0(sp)
   1375a:	8526                	mv	a0,s1
   1375c:	64a2                	ld	s1,8(sp)
   1375e:	6105                	addi	sp,sp,32
   13760:	8782                	jr	a5
   13762:	577d                	li	a4,-1
   13764:	f8e787e3          	beq	a5,a4,0x136f2
   13768:	557d                	li	a0,-1
   1376a:	a825                	j	0x137a2
   1376c:	64a8                	ld	a0,72(s1)
   1376e:	e04a                	sd	s2,0(sp)
   13770:	d179                	beqz	a0,0x13736
   13772:	409c                	lw	a5,0(s1)
   13774:	1007f713          	andi	a4,a5,256
   13778:	cb11                	beqz	a4,0x1378c
   1377a:	6c98                	ld	a4,24(s1)
   1377c:	6cb4                	ld	a3,88(s1)
   1377e:	eff7f793          	andi	a5,a5,-257
   13782:	ec88                	sd	a0,24(s1)
   13784:	e488                	sd	a0,8(s1)
   13786:	c09c                	sw	a5,0(s1)
   13788:	e894                	sd	a3,16(s1)
   1378a:	853a                	mv	a0,a4
   1378c:	519050ef          	jal	0x194a4
   13790:	0404b423          	sd	zero,72(s1)
   13794:	0404bc23          	sd	zero,88(s1)
   13798:	0404b823          	sd	zero,80(s1)
   1379c:	bf69                	j	0x13736
   1379e:	0007c503          	lbu	a0,0(a5)
   137a2:	60e2                	ld	ra,24(sp)
   137a4:	6442                	ld	s0,16(sp)
   137a6:	64a2                	ld	s1,8(sp)
   137a8:	6105                	addi	sp,sp,32
   137aa:	8082                	ret
   137ac:	8526                	mv	a0,s1
   137ae:	e0dff0ef          	jal	0x135ba
   137b2:	57fd                	li	a5,-1
   137b4:	f4f514e3          	bne	a0,a5,0x136fc
   137b8:	557d                	li	a0,-1
   137ba:	b7e5                	j	0x137a2
   137bc:	60e2                	ld	ra,24(sp)
   137be:	6442                	ld	s0,16(sp)
   137c0:	0006c503          	lbu	a0,0(a3)
   137c4:	64a2                	ld	s1,8(sp)
   137c6:	6105                	addi	sp,sp,32
   137c8:	8082                	ret
   137ca:	b2bfd0ef          	jal	0x112f4
   137ce:	b749                	j	0x13750
   137d0:	1101                	addi	sp,sp,-32
   137d2:	e822                	sd	s0,16(sp)
   137d4:	e426                	sd	s1,8(sp)
   137d6:	ec06                	sd	ra,24(sp)
   137d8:	1000                	addi	s0,sp,32
   137da:	0c052783          	lw	a5,192(a0)
   137de:	84aa                	mv	s1,a0
   137e0:	efa5                	bnez	a5,0x13858
   137e2:	57fd                	li	a5,-1
   137e4:	0cf52023          	sw	a5,192(a0)
   137e8:	409c                	lw	a5,0(s1)
   137ea:	03479713          	slli	a4,a5,0x34
   137ee:	0a074d63          	bltz	a4,0x138a8
   137f2:	649c                	ld	a5,8(s1)
   137f4:	6898                	ld	a4,16(s1)
   137f6:	08e7ef63          	bltu	a5,a4,0x13894
   137fa:	409c                	lw	a5,0(s1)
   137fc:	1007f693          	andi	a3,a5,256
   13800:	ce91                	beqz	a3,0x1381c
   13802:	6cb0                	ld	a2,88(s1)
   13804:	6c8c                	ld	a1,24(s1)
   13806:	64b4                	ld	a3,72(s1)
   13808:	eff7f793          	andi	a5,a5,-257
   1380c:	c09c                	sw	a5,0(s1)
   1380e:	e890                	sd	a2,16(s1)
   13810:	ecb8                	sd	a4,88(s1)
   13812:	ec94                	sd	a3,24(s1)
   13814:	e4ac                	sd	a1,72(s1)
   13816:	0ac6e163          	bltu	a3,a2,0x138b8
   1381a:	e494                	sd	a3,8(s1)
   1381c:	70bc                	ld	a5,96(s1)
   1381e:	c3b1                	beqz	a5,0x13862
   13820:	688c                	ld	a1,16(s1)
   13822:	8526                	mv	a0,s1
   13824:	efcff0ef          	jal	0x12f20
   13828:	e91d                	bnez	a0,0x1385e
   1382a:	e04a                	sd	s2,0(sp)
   1382c:	0d84b903          	ld	s2,216(s1)
   13830:	6785                	lui	a5,0x1
   13832:	0006c717          	auipc	a4,0x6c
   13836:	54e70713          	addi	a4,a4,1358 # 0x7fd80
   1383a:	40e90733          	sub	a4,s2,a4
   1383e:	92f78793          	addi	a5,a5,-1745 # 0x92f
   13842:	08e7e563          	bltu	a5,a4,0x138cc
   13846:	6442                	ld	s0,16(sp)
   13848:	02893783          	ld	a5,40(s2)
   1384c:	60e2                	ld	ra,24(sp)
   1384e:	6902                	ld	s2,0(sp)
   13850:	8526                	mv	a0,s1
   13852:	64a2                	ld	s1,8(sp)
   13854:	6105                	addi	sp,sp,32
   13856:	8782                	jr	a5
   13858:	577d                	li	a4,-1
   1385a:	f8e787e3          	beq	a5,a4,0x137e8
   1385e:	557d                	li	a0,-1
   13860:	a83d                	j	0x1389e
   13862:	64a8                	ld	a0,72(s1)
   13864:	e04a                	sd	s2,0(sp)
   13866:	d179                	beqz	a0,0x1382c
   13868:	409c                	lw	a5,0(s1)
   1386a:	1007f713          	andi	a4,a5,256
   1386e:	cb11                	beqz	a4,0x13882
   13870:	6c98                	ld	a4,24(s1)
   13872:	6cb4                	ld	a3,88(s1)
   13874:	eff7f793          	andi	a5,a5,-257
   13878:	ec88                	sd	a0,24(s1)
   1387a:	e488                	sd	a0,8(s1)
   1387c:	c09c                	sw	a5,0(s1)
   1387e:	e894                	sd	a3,16(s1)
   13880:	853a                	mv	a0,a4
   13882:	423050ef          	jal	0x194a4
   13886:	0404b423          	sd	zero,72(s1)
   1388a:	0404bc23          	sd	zero,88(s1)
   1388e:	0404b823          	sd	zero,80(s1)
   13892:	bf69                	j	0x1382c
   13894:	00178713          	addi	a4,a5,1
   13898:	e498                	sd	a4,8(s1)
   1389a:	0007c503          	lbu	a0,0(a5)
   1389e:	60e2                	ld	ra,24(sp)
   138a0:	6442                	ld	s0,16(sp)
   138a2:	64a2                	ld	s1,8(sp)
   138a4:	6105                	addi	sp,sp,32
   138a6:	8082                	ret
   138a8:	8526                	mv	a0,s1
   138aa:	d11ff0ef          	jal	0x135ba
   138ae:	57fd                	li	a5,-1
   138b0:	f4f511e3          	bne	a0,a5,0x137f2
   138b4:	557d                	li	a0,-1
   138b6:	b7e5                	j	0x1389e
   138b8:	60e2                	ld	ra,24(sp)
   138ba:	6442                	ld	s0,16(sp)
   138bc:	00168793          	addi	a5,a3,1
   138c0:	e49c                	sd	a5,8(s1)
   138c2:	0006c503          	lbu	a0,0(a3)
   138c6:	64a2                	ld	s1,8(sp)
   138c8:	6105                	addi	sp,sp,32
   138ca:	8082                	ret
   138cc:	a29fd0ef          	jal	0x112f4
   138d0:	bf9d                	j	0x13846
   138d2:	7179                	addi	sp,sp,-48
   138d4:	f022                	sd	s0,32(sp)
   138d6:	ec26                	sd	s1,24(sp)
   138d8:	e84a                	sd	s2,16(sp)
   138da:	e44e                	sd	s3,8(sp)
   138dc:	e052                	sd	s4,0(sp)
   138de:	f406                	sd	ra,40(sp)
   138e0:	1800                	addi	s0,sp,48
   138e2:	84aa                	mv	s1,a0
   138e4:	7d08                	ld	a0,56(a0)
   138e6:	409c                	lw	a5,0(s1)
   138e8:	8a2e                	mv	s4,a1
   138ea:	89b2                	mv	s3,a2
   138ec:	8936                	mv	s2,a3
   138ee:	c501                	beqz	a0,0x138f6
   138f0:	0017f713          	andi	a4,a5,1
   138f4:	c705                	beqz	a4,0x1391c
   138f6:	0344bc23          	sd	s4,56(s1)
   138fa:	0534b023          	sd	s3,64(s1)
   138fe:	0017e713          	ori	a4,a5,1
   13902:	00090463          	beqz	s2,0x1390a
   13906:	ffe7f713          	andi	a4,a5,-2
   1390a:	70a2                	ld	ra,40(sp)
   1390c:	7402                	ld	s0,32(sp)
   1390e:	c098                	sw	a4,0(s1)
   13910:	6942                	ld	s2,16(sp)
   13912:	64e2                	ld	s1,24(sp)
   13914:	69a2                	ld	s3,8(sp)
   13916:	6a02                	ld	s4,0(sp)
   13918:	6145                	addi	sp,sp,48
   1391a:	8082                	ret
   1391c:	389050ef          	jal	0x194a4
   13920:	409c                	lw	a5,0(s1)
   13922:	bfd1                	j	0x138f6
   13924:	7d1c                	ld	a5,56(a0)
   13926:	c391                	beqz	a5,0x1392a
   13928:	8082                	ret
   1392a:	7179                	addi	sp,sp,-48
   1392c:	f022                	sd	s0,32(sp)
   1392e:	ec26                	sd	s1,24(sp)
   13930:	f406                	sd	ra,40(sp)
   13932:	e84a                	sd	s2,16(sp)
   13934:	e44e                	sd	s3,8(sp)
   13936:	1800                	addi	s0,sp,48
   13938:	411c                	lw	a5,0(a0)
   1393a:	84aa                	mv	s1,a0
   1393c:	0027f713          	andi	a4,a5,2
   13940:	c709                	beqz	a4,0x1394a
   13942:	0c052703          	lw	a4,192(a0)
   13946:	04e05e63          	blez	a4,0x139a2
   1394a:	0d84b903          	ld	s2,216(s1)
   1394e:	6785                	lui	a5,0x1
   13950:	0006c717          	auipc	a4,0x6c
   13954:	43070713          	addi	a4,a4,1072 # 0x7fd80
   13958:	40e90733          	sub	a4,s2,a4
   1395c:	92f78793          	addi	a5,a5,-1745 # 0x92f
   13960:	04e7ea63          	bltu	a5,a4,0x139b4
   13964:	06893783          	ld	a5,104(s2)
   13968:	8526                	mv	a0,s1
   1396a:	9782                	jalr	a5
   1396c:	57fd                	li	a5,-1
   1396e:	02f51363          	bne	a0,a5,0x13994
   13972:	7c88                	ld	a0,56(s1)
   13974:	409c                	lw	a5,0(s1)
   13976:	08348993          	addi	s3,s1,131
   1397a:	08448913          	addi	s2,s1,132
   1397e:	c501                	beqz	a0,0x13986
   13980:	0017f713          	andi	a4,a5,1
   13984:	c705                	beqz	a4,0x139ac
   13986:	0017e793          	ori	a5,a5,1
   1398a:	0334bc23          	sd	s3,56(s1)
   1398e:	0524b023          	sd	s2,64(s1)
   13992:	c09c                	sw	a5,0(s1)
   13994:	70a2                	ld	ra,40(sp)
   13996:	7402                	ld	s0,32(sp)
   13998:	64e2                	ld	s1,24(sp)
   1399a:	6942                	ld	s2,16(sp)
   1399c:	69a2                	ld	s3,8(sp)
   1399e:	6145                	addi	sp,sp,48
   139a0:	8082                	ret
   139a2:	08350993          	addi	s3,a0,131
   139a6:	08450913          	addi	s2,a0,132
   139aa:	bff1                	j	0x13986
   139ac:	2f9050ef          	jal	0x194a4
   139b0:	409c                	lw	a5,0(s1)
   139b2:	bfd1                	j	0x13986
   139b4:	941fd0ef          	jal	0x112f4
   139b8:	b775                	j	0x13964
   139ba:	1141                	addi	sp,sp,-16
   139bc:	e422                	sd	s0,8(sp)
   139be:	0800                	addi	s0,sp,16
   139c0:	6422                	ld	s0,8(sp)
   139c2:	557d                	li	a0,-1
   139c4:	0141                	addi	sp,sp,16
   139c6:	8082                	ret
   139c8:	1101                	addi	sp,sp,-32
   139ca:	e822                	sd	s0,16(sp)
   139cc:	e426                	sd	s1,8(sp)
   139ce:	e04a                	sd	s2,0(sp)
   139d0:	ec06                	sd	ra,24(sp)
   139d2:	1000                	addi	s0,sp,32
   139d4:	0d853903          	ld	s2,216(a0)
   139d8:	6785                	lui	a5,0x1
   139da:	0006c717          	auipc	a4,0x6c
   139de:	3a670713          	addi	a4,a4,934 # 0x7fd80
   139e2:	40e90733          	sub	a4,s2,a4
   139e6:	92f78793          	addi	a5,a5,-1745 # 0x92f
   139ea:	84aa                	mv	s1,a0
   139ec:	02e7e563          	bltu	a5,a4,0x13a16
   139f0:	02093783          	ld	a5,32(s2)
   139f4:	8526                	mv	a0,s1
   139f6:	9782                	jalr	a5
   139f8:	57fd                	li	a5,-1
   139fa:	00f50863          	beq	a0,a5,0x13a0a
   139fe:	649c                	ld	a5,8(s1)
   13a00:	00178713          	addi	a4,a5,1
   13a04:	e498                	sd	a4,8(s1)
   13a06:	0007c503          	lbu	a0,0(a5)
   13a0a:	60e2                	ld	ra,24(sp)
   13a0c:	6442                	ld	s0,16(sp)
   13a0e:	64a2                	ld	s1,8(sp)
   13a10:	6902                	ld	s2,0(sp)
   13a12:	6105                	addi	sp,sp,32
   13a14:	8082                	ret
   13a16:	8dffd0ef          	jal	0x112f4
   13a1a:	bfd9                	j	0x139f0
   13a1c:	ce71                	beqz	a2,0x13af8
   13a1e:	711d                	addi	sp,sp,-96
   13a20:	e8a2                	sd	s0,80(sp)
   13a22:	e4a6                	sd	s1,72(sp)
   13a24:	fc4e                	sd	s3,56(sp)
   13a26:	f852                	sd	s4,48(sp)
   13a28:	f456                	sd	s5,40(sp)
   13a2a:	f05a                	sd	s6,32(sp)
   13a2c:	ec5e                	sd	s7,24(sp)
   13a2e:	e862                	sd	s8,16(sp)
   13a30:	e466                	sd	s9,8(sp)
   13a32:	ec86                	sd	ra,88(sp)
   13a34:	e0ca                	sd	s2,64(sp)
   13a36:	1080                	addi	s0,sp,96
   13a38:	6b05                	lui	s6,0x1
   13a3a:	8ab2                	mv	s5,a2
   13a3c:	8a2a                	mv	s4,a0
   13a3e:	84ae                	mv	s1,a1
   13a40:	89b2                	mv	s3,a2
   13a42:	4cd1                	li	s9,20
   13a44:	0006cc17          	auipc	s8,0x6c
   13a48:	33cc0c13          	addi	s8,s8,828 # 0x7fd80
   13a4c:	92fb0b13          	addi	s6,s6,-1745 # 0x92f
   13a50:	5bfd                	li	s7,-1
   13a52:	028a3503          	ld	a0,40(s4)
   13a56:	030a3903          	ld	s2,48(s4)
   13a5a:	01257d63          	bgeu	a0,s2,0x13a74
   13a5e:	40a90933          	sub	s2,s2,a0
   13a62:	0129f363          	bgeu	s3,s2,0x13a68
   13a66:	894e                	mv	s2,s3
   13a68:	052cea63          	bltu	s9,s2,0x13abc
   13a6c:	02091763          	bnez	s2,0x13a9a
   13a70:	412989b3          	sub	s3,s3,s2
   13a74:	06098163          	beqz	s3,0x13ad6
   13a78:	0d8a3903          	ld	s2,216(s4)
   13a7c:	418907b3          	sub	a5,s2,s8
   13a80:	06fb6963          	bltu	s6,a5,0x13af2
   13a84:	0004c583          	lbu	a1,0(s1)
   13a88:	01893783          	ld	a5,24(s2)
   13a8c:	8552                	mv	a0,s4
   13a8e:	0485                	addi	s1,s1,1
   13a90:	9782                	jalr	a5
   13a92:	05750063          	beq	a0,s7,0x13ad2
   13a96:	19fd                	addi	s3,s3,-1
   13a98:	bf6d                	j	0x13a52
   13a9a:	012486b3          	add	a3,s1,s2
   13a9e:	87aa                	mv	a5,a0
   13aa0:	0004c703          	lbu	a4,0(s1)
   13aa4:	0485                	addi	s1,s1,1
   13aa6:	0785                	addi	a5,a5,1
   13aa8:	fee78fa3          	sb	a4,-1(a5)
   13aac:	fe969ae3          	bne	a3,s1,0x13aa0
   13ab0:	954a                	add	a0,a0,s2
   13ab2:	02aa3423          	sd	a0,40(s4)
   13ab6:	412989b3          	sub	s3,s3,s2
   13aba:	bf6d                	j	0x13a74
   13abc:	85a6                	mv	a1,s1
   13abe:	864a                	mv	a2,s2
   13ac0:	43d060ef          	jal	0x1a6fc
   13ac4:	954a                	add	a0,a0,s2
   13ac6:	02aa3423          	sd	a0,40(s4)
   13aca:	94ca                	add	s1,s1,s2
   13acc:	412989b3          	sub	s3,s3,s2
   13ad0:	b755                	j	0x13a74
   13ad2:	413a8ab3          	sub	s5,s5,s3
   13ad6:	60e6                	ld	ra,88(sp)
   13ad8:	6446                	ld	s0,80(sp)
   13ada:	64a6                	ld	s1,72(sp)
   13adc:	6906                	ld	s2,64(sp)
   13ade:	79e2                	ld	s3,56(sp)
   13ae0:	7a42                	ld	s4,48(sp)
   13ae2:	7b02                	ld	s6,32(sp)
   13ae4:	6be2                	ld	s7,24(sp)
   13ae6:	6c42                	ld	s8,16(sp)
   13ae8:	6ca2                	ld	s9,8(sp)
   13aea:	8556                	mv	a0,s5
   13aec:	7aa2                	ld	s5,40(sp)
   13aee:	6125                	addi	sp,sp,96
   13af0:	8082                	ret
   13af2:	803fd0ef          	jal	0x112f4
   13af6:	b779                	j	0x13a84
   13af8:	4501                	li	a0,0
   13afa:	8082                	ret
   13afc:	7139                	addi	sp,sp,-64
   13afe:	f822                	sd	s0,48(sp)
   13b00:	f426                	sd	s1,40(sp)
   13b02:	fc06                	sd	ra,56(sp)
   13b04:	0080                	addi	s0,sp,64
   13b06:	6d64                	ld	s1,216(a0)
   13b08:	6785                	lui	a5,0x1
   13b0a:	0006c717          	auipc	a4,0x6c
   13b0e:	27670713          	addi	a4,a4,630 # 0x7fd80
   13b12:	40e48733          	sub	a4,s1,a4
   13b16:	92f78793          	addi	a5,a5,-1745 # 0x92f
   13b1a:	00e7e863          	bltu	a5,a4,0x13b2a
   13b1e:	7442                	ld	s0,48(sp)
   13b20:	60bc                	ld	a5,64(s1)
   13b22:	70e2                	ld	ra,56(sp)
   13b24:	74a2                	ld	s1,40(sp)
   13b26:	6121                	addi	sp,sp,64
   13b28:	8782                	jr	a5
   13b2a:	fcc43423          	sd	a2,-56(s0)
   13b2e:	fcb43823          	sd	a1,-48(s0)
   13b32:	fca43c23          	sd	a0,-40(s0)
   13b36:	fbefd0ef          	jal	0x112f4
   13b3a:	fc843603          	ld	a2,-56(s0)
   13b3e:	fd043583          	ld	a1,-48(s0)
   13b42:	fd843503          	ld	a0,-40(s0)
   13b46:	7442                	ld	s0,48(sp)
   13b48:	60bc                	ld	a5,64(s1)
   13b4a:	70e2                	ld	ra,56(sp)
   13b4c:	74a2                	ld	s1,40(sp)
   13b4e:	6121                	addi	sp,sp,64
   13b50:	8782                	jr	a5
   13b52:	7139                	addi	sp,sp,-64
   13b54:	f822                	sd	s0,48(sp)
   13b56:	f426                	sd	s1,40(sp)
   13b58:	f04a                	sd	s2,32(sp)
   13b5a:	ec4e                	sd	s3,24(sp)
   13b5c:	e852                	sd	s4,16(sp)
   13b5e:	e456                	sd	s5,8(sp)
   13b60:	fc06                	sd	ra,56(sp)
   13b62:	e05a                	sd	s6,0(sp)
   13b64:	0080                	addi	s0,sp,64
   13b66:	651c                	ld	a5,8(a0)
   13b68:	6904                	ld	s1,16(a0)
   13b6a:	89aa                	mv	s3,a0
   13b6c:	8ab2                	mv	s5,a2
   13b6e:	892e                	mv	s2,a1
   13b70:	8a32                	mv	s4,a2
   13b72:	0097fc63          	bgeu	a5,s1,0x13b8a
   13b76:	8c9d                	sub	s1,s1,a5
   13b78:	009a7363          	bgeu	s4,s1,0x13b7e
   13b7c:	84d2                	mv	s1,s4
   13b7e:	4751                	li	a4,20
   13b80:	06976963          	bltu	a4,s1,0x13bf2
   13b84:	e0b9                	bnez	s1,0x13bca
   13b86:	409a0a33          	sub	s4,s4,s1
   13b8a:	020a0563          	beqz	s4,0x13bb4
   13b8e:	854e                	mv	a0,s3
   13b90:	5b7d                	li	s6,-1
   13b92:	b49ff0ef          	jal	0x136da
   13b96:	01650d63          	beq	a0,s6,0x13bb0
   13b9a:	0089b783          	ld	a5,8(s3)
   13b9e:	0109b483          	ld	s1,16(s3)
   13ba2:	fc97eae3          	bltu	a5,s1,0x13b76
   13ba6:	854e                	mv	a0,s3
   13ba8:	b33ff0ef          	jal	0x136da
   13bac:	ff6517e3          	bne	a0,s6,0x13b9a
   13bb0:	414a8ab3          	sub	s5,s5,s4
   13bb4:	70e2                	ld	ra,56(sp)
   13bb6:	7442                	ld	s0,48(sp)
   13bb8:	74a2                	ld	s1,40(sp)
   13bba:	7902                	ld	s2,32(sp)
   13bbc:	69e2                	ld	s3,24(sp)
   13bbe:	6a42                	ld	s4,16(sp)
   13bc0:	6b02                	ld	s6,0(sp)
   13bc2:	8556                	mv	a0,s5
   13bc4:	6aa2                	ld	s5,8(sp)
   13bc6:	6121                	addi	sp,sp,64
   13bc8:	8082                	ret
   13bca:	02049593          	slli	a1,s1,0x20
   13bce:	9181                	srli	a1,a1,0x20
   13bd0:	00b90633          	add	a2,s2,a1
   13bd4:	873e                	mv	a4,a5
   13bd6:	00074683          	lbu	a3,0(a4)
   13bda:	0905                	addi	s2,s2,1
   13bdc:	0705                	addi	a4,a4,1
   13bde:	fed90fa3          	sb	a3,-1(s2)
   13be2:	fec91ae3          	bne	s2,a2,0x13bd6
   13be6:	97ae                	add	a5,a5,a1
   13be8:	00f9b423          	sd	a5,8(s3)
   13bec:	409a0a33          	sub	s4,s4,s1
   13bf0:	bf69                	j	0x13b8a
   13bf2:	85be                	mv	a1,a5
   13bf4:	854a                	mv	a0,s2
   13bf6:	8626                	mv	a2,s1
   13bf8:	305060ef          	jal	0x1a6fc
   13bfc:	0089b783          	ld	a5,8(s3)
   13c00:	00950933          	add	s2,a0,s1
   13c04:	409a0a33          	sub	s4,s4,s1
   13c08:	97a6                	add	a5,a5,s1
   13c0a:	00f9b423          	sd	a5,8(s3)
   13c0e:	bfb5                	j	0x13b8a
   13c10:	7179                	addi	sp,sp,-48
   13c12:	f022                	sd	s0,32(sp)
   13c14:	ec26                	sd	s1,24(sp)
   13c16:	e84a                	sd	s2,16(sp)
   13c18:	e44e                	sd	s3,8(sp)
   13c1a:	e052                	sd	s4,0(sp)
   13c1c:	f406                	sd	ra,40(sp)
   13c1e:	1800                	addi	s0,sp,48
   13c20:	0d853a03          	ld	s4,216(a0)
   13c24:	6785                	lui	a5,0x1
   13c26:	0006c717          	auipc	a4,0x6c
   13c2a:	15a70713          	addi	a4,a4,346 # 0x7fd80
   13c2e:	40ea0733          	sub	a4,s4,a4
   13c32:	92f78793          	addi	a5,a5,-1745 # 0x92f
   13c36:	84aa                	mv	s1,a0
   13c38:	89ae                	mv	s3,a1
   13c3a:	8932                	mv	s2,a2
   13c3c:	08e7e063          	bltu	a5,a4,0x13cbc
   13c40:	060a3783          	ld	a5,96(s4)
   13c44:	8526                	mv	a0,s1
   13c46:	9782                	jalr	a5
   13c48:	57fd                	li	a5,-1
   13c4a:	06f50c63          	beq	a0,a5,0x13cc2
   13c4e:	4098                	lw	a4,0(s1)
   13c50:	7c88                	ld	a0,56(s1)
   13c52:	00098463          	beqz	s3,0x13c5a
   13c56:	04091863          	bnez	s2,0x13ca6
   13c5a:	00276793          	ori	a5,a4,2
   13c5e:	c09c                	sw	a5,0(s1)
   13c60:	08348993          	addi	s3,s1,131
   13c64:	08448913          	addi	s2,s1,132
   13c68:	c119                	beqz	a0,0x13c6e
   13c6a:	8b05                	andi	a4,a4,1
   13c6c:	c721                	beqz	a4,0x13cb4
   13c6e:	0017e793          	ori	a5,a5,1
   13c72:	0334bc23          	sd	s3,56(s1)
   13c76:	0524b023          	sd	s2,64(s1)
   13c7a:	c09c                	sw	a5,0(s1)
   13c7c:	0204b823          	sd	zero,48(s1)
   13c80:	0204b423          	sd	zero,40(s1)
   13c84:	0204b023          	sd	zero,32(s1)
   13c88:	0004b823          	sd	zero,16(s1)
   13c8c:	0004b423          	sd	zero,8(s1)
   13c90:	0004bc23          	sd	zero,24(s1)
   13c94:	8526                	mv	a0,s1
   13c96:	70a2                	ld	ra,40(sp)
   13c98:	7402                	ld	s0,32(sp)
   13c9a:	64e2                	ld	s1,24(sp)
   13c9c:	6942                	ld	s2,16(sp)
   13c9e:	69a2                	ld	s3,8(sp)
   13ca0:	6a02                	ld	s4,0(sp)
   13ca2:	6145                	addi	sp,sp,48
   13ca4:	8082                	ret
   13ca6:	ffd77793          	andi	a5,a4,-3
   13caa:	c09c                	sw	a5,0(s1)
   13cac:	994e                	add	s2,s2,s3
   13cae:	d161                	beqz	a0,0x13c6e
   13cb0:	8b05                	andi	a4,a4,1
   13cb2:	ff55                	bnez	a4,0x13c6e
   13cb4:	7f0050ef          	jal	0x194a4
   13cb8:	409c                	lw	a5,0(s1)
   13cba:	bf55                	j	0x13c6e
   13cbc:	e38fd0ef          	jal	0x112f4
   13cc0:	b741                	j	0x13c40
   13cc2:	4501                	li	a0,0
   13cc4:	bfc9                	j	0x13c96
   13cc6:	7139                	addi	sp,sp,-64
   13cc8:	f822                	sd	s0,48(sp)
   13cca:	f426                	sd	s1,40(sp)
   13ccc:	fc06                	sd	ra,56(sp)
   13cce:	0080                	addi	s0,sp,64
   13cd0:	6d64                	ld	s1,216(a0)
   13cd2:	6785                	lui	a5,0x1
   13cd4:	0006c717          	auipc	a4,0x6c
   13cd8:	0ac70713          	addi	a4,a4,172 # 0x7fd80
   13cdc:	40e48733          	sub	a4,s1,a4
   13ce0:	92f78793          	addi	a5,a5,-1745 # 0x92f
   13ce4:	86b2                	mv	a3,a2
   13ce6:	00e7e963          	bltu	a5,a4,0x13cf8
   13cea:	7442                	ld	s0,48(sp)
   13cec:	64bc                	ld	a5,72(s1)
   13cee:	70e2                	ld	ra,56(sp)
   13cf0:	74a2                	ld	s1,40(sp)
   13cf2:	4601                	li	a2,0
   13cf4:	6121                	addi	sp,sp,64
   13cf6:	8782                	jr	a5
   13cf8:	fcc43423          	sd	a2,-56(s0)
   13cfc:	fcb43823          	sd	a1,-48(s0)
   13d00:	fca43c23          	sd	a0,-40(s0)
   13d04:	df0fd0ef          	jal	0x112f4
   13d08:	fc843683          	ld	a3,-56(s0)
   13d0c:	fd043583          	ld	a1,-48(s0)
   13d10:	fd843503          	ld	a0,-40(s0)
   13d14:	7442                	ld	s0,48(sp)
   13d16:	64bc                	ld	a5,72(s1)
   13d18:	70e2                	ld	ra,56(sp)
   13d1a:	74a2                	ld	s1,40(sp)
   13d1c:	4601                	li	a2,0
   13d1e:	6121                	addi	sp,sp,64
   13d20:	8782                	jr	a5
   13d22:	7179                	addi	sp,sp,-48
   13d24:	f022                	sd	s0,32(sp)
   13d26:	ec26                	sd	s1,24(sp)
   13d28:	f406                	sd	ra,40(sp)
   13d2a:	1800                	addi	s0,sp,48
   13d2c:	84aa                	mv	s1,a0
   13d2e:	6509                	lui	a0,0x2
   13d30:	236050ef          	jal	0x18f66
   13d34:	cd15                	beqz	a0,0x13d70
   13d36:	e84a                	sd	s2,16(sp)
   13d38:	892a                	mv	s2,a0
   13d3a:	7c88                	ld	a0,56(s1)
   13d3c:	e44e                	sd	s3,8(sp)
   13d3e:	6989                	lui	s3,0x2
   13d40:	409c                	lw	a5,0(s1)
   13d42:	99ca                	add	s3,s3,s2
   13d44:	c501                	beqz	a0,0x13d4c
   13d46:	0017f713          	andi	a4,a5,1
   13d4a:	cf19                	beqz	a4,0x13d68
   13d4c:	70a2                	ld	ra,40(sp)
   13d4e:	7402                	ld	s0,32(sp)
   13d50:	9bf9                	andi	a5,a5,-2
   13d52:	0324bc23          	sd	s2,56(s1)
   13d56:	0534b023          	sd	s3,64(s1)
   13d5a:	c09c                	sw	a5,0(s1)
   13d5c:	6942                	ld	s2,16(sp)
   13d5e:	69a2                	ld	s3,8(sp)
   13d60:	64e2                	ld	s1,24(sp)
   13d62:	4505                	li	a0,1
   13d64:	6145                	addi	sp,sp,48
   13d66:	8082                	ret
   13d68:	73c050ef          	jal	0x194a4
   13d6c:	409c                	lw	a5,0(s1)
   13d6e:	bff9                	j	0x13d4c
   13d70:	70a2                	ld	ra,40(sp)
   13d72:	7402                	ld	s0,32(sp)
   13d74:	64e2                	ld	s1,24(sp)
   13d76:	557d                	li	a0,-1
   13d78:	6145                	addi	sp,sp,48
   13d7a:	8082                	ret
   13d7c:	1141                	addi	sp,sp,-16
   13d7e:	e422                	sd	s0,8(sp)
   13d80:	0800                	addi	s0,sp,16
   13d82:	4e01a783          	lw	a5,1248(gp)
   13d86:	00f037b3          	snez	a5,a5
   13d8a:	fbad06b7          	lui	a3,0xfbad0
   13d8e:	6558                	ld	a4,136(a0)
   13d90:	8dd5                	or	a1,a1,a3
   13d92:	0077979b          	slliw	a5,a5,0x7
   13d96:	c10c                	sw	a1,0(a0)
   13d98:	d97c                	sw	a5,116(a0)
   13d9a:	02053c23          	sd	zero,56(a0) # 0x2038
   13d9e:	04053023          	sd	zero,64(a0)
   13da2:	00053c23          	sd	zero,24(a0)
   13da6:	00053423          	sd	zero,8(a0)
   13daa:	00053823          	sd	zero,16(a0)
   13dae:	02053023          	sd	zero,32(a0)
   13db2:	02053423          	sd	zero,40(a0)
   13db6:	02053823          	sd	zero,48(a0)
   13dba:	06053423          	sd	zero,104(a0)
   13dbe:	04053423          	sd	zero,72(a0)
   13dc2:	04053823          	sd	zero,80(a0)
   13dc6:	04053c23          	sd	zero,88(a0)
   13dca:	06053023          	sd	zero,96(a0)
   13dce:	08051023          	sh	zero,128(a0)
   13dd2:	c709                	beqz	a4,0x13ddc
   13dd4:	00073023          	sd	zero,0(a4)
   13dd8:	00073423          	sd	zero,8(a4)
   13ddc:	6422                	ld	s0,8(sp)
   13dde:	57fd                	li	a5,-1
   13de0:	0cf52023          	sw	a5,192(a0)
   13de4:	f15c                	sd	a5,160(a0)
   13de6:	0a053423          	sd	zero,168(a0)
   13dea:	0141                	addi	sp,sp,16
   13dec:	8082                	ret
   13dee:	1141                	addi	sp,sp,-16
   13df0:	e422                	sd	s0,8(sp)
   13df2:	0800                	addi	s0,sp,16
   13df4:	4e01a783          	lw	a5,1248(gp)
   13df8:	00f037b3          	snez	a5,a5
   13dfc:	fbad06b7          	lui	a3,0xfbad0
   13e00:	6558                	ld	a4,136(a0)
   13e02:	8dd5                	or	a1,a1,a3
   13e04:	0077979b          	slliw	a5,a5,0x7
   13e08:	c10c                	sw	a1,0(a0)
   13e0a:	d97c                	sw	a5,116(a0)
   13e0c:	02053c23          	sd	zero,56(a0)
   13e10:	04053023          	sd	zero,64(a0)
   13e14:	00053c23          	sd	zero,24(a0)
   13e18:	00053423          	sd	zero,8(a0)
   13e1c:	00053823          	sd	zero,16(a0)
   13e20:	02053023          	sd	zero,32(a0)
   13e24:	02053423          	sd	zero,40(a0)
   13e28:	02053823          	sd	zero,48(a0)
   13e2c:	06053423          	sd	zero,104(a0)
   13e30:	04053423          	sd	zero,72(a0)
   13e34:	04053823          	sd	zero,80(a0)
   13e38:	04053c23          	sd	zero,88(a0)
   13e3c:	06053023          	sd	zero,96(a0)
   13e40:	08051023          	sh	zero,128(a0)
   13e44:	c709                	beqz	a4,0x13e4e
   13e46:	00073023          	sd	zero,0(a4)
   13e4a:	00073423          	sd	zero,8(a4)
   13e4e:	6422                	ld	s0,8(sp)
   13e50:	57fd                	li	a5,-1
   13e52:	0cf52023          	sw	a5,192(a0)
   13e56:	f15c                	sd	a5,160(a0)
   13e58:	0a053423          	sd	zero,168(a0)
   13e5c:	0141                	addi	sp,sp,16
   13e5e:	8082                	ret
   13e60:	1141                	addi	sp,sp,-16
   13e62:	e422                	sd	s0,8(sp)
   13e64:	0800                	addi	s0,sp,16
   13e66:	4c818793          	addi	a5,gp,1224
   13e6a:	4f98                	lw	a4,24(a5)
   13e6c:	ef11                	bnez	a4,0x13e88
   13e6e:	4705                	li	a4,1
   13e70:	cf98                	sw	a4,24(a5)
   13e72:	0006e797          	auipc	a5,0x6e
   13e76:	19e7b783          	ld	a5,414(a5) # 0x82010
   13e7a:	c799                	beqz	a5,0x13e88
   13e7c:	5bf8                	lw	a4,116(a5)
   13e7e:	08076713          	ori	a4,a4,128
   13e82:	dbf8                	sw	a4,116(a5)
   13e84:	77bc                	ld	a5,104(a5)
   13e86:	fbfd                	bnez	a5,0x13e7c
   13e88:	6422                	ld	s0,8(sp)
   13e8a:	0141                	addi	sp,sp,16
   13e8c:	8082                	ret
   13e8e:	1141                	addi	sp,sp,-16
   13e90:	e422                	sd	s0,8(sp)
   13e92:	0800                	addi	s0,sp,16
   13e94:	4e01a783          	lw	a5,1248(gp)
   13e98:	00f037b3          	snez	a5,a5
   13e9c:	fbad06b7          	lui	a3,0xfbad0
   13ea0:	6558                	ld	a4,136(a0)
   13ea2:	8dd5                	or	a1,a1,a3
   13ea4:	0077979b          	slliw	a5,a5,0x7
   13ea8:	c10c                	sw	a1,0(a0)
   13eaa:	d97c                	sw	a5,116(a0)
   13eac:	02053c23          	sd	zero,56(a0)
   13eb0:	04053023          	sd	zero,64(a0)
   13eb4:	00053c23          	sd	zero,24(a0)
   13eb8:	00053423          	sd	zero,8(a0)
   13ebc:	00053823          	sd	zero,16(a0)
   13ec0:	02053023          	sd	zero,32(a0)
   13ec4:	02053423          	sd	zero,40(a0)
   13ec8:	02053823          	sd	zero,48(a0)
   13ecc:	06053423          	sd	zero,104(a0)
   13ed0:	04053423          	sd	zero,72(a0)
   13ed4:	04053823          	sd	zero,80(a0)
   13ed8:	04053c23          	sd	zero,88(a0)
   13edc:	06053023          	sd	zero,96(a0)
   13ee0:	08051023          	sh	zero,128(a0)
   13ee4:	c709                	beqz	a4,0x13eee
   13ee6:	00073023          	sd	zero,0(a4)
   13eea:	00073423          	sd	zero,8(a4)
   13eee:	6422                	ld	s0,8(sp)
   13ef0:	0141                	addi	sp,sp,16
   13ef2:	8082                	ret
   13ef4:	1141                	addi	sp,sp,-16
   13ef6:	e422                	sd	s0,8(sp)
   13ef8:	0800                	addi	s0,sp,16
   13efa:	4e01a783          	lw	a5,1248(gp)
   13efe:	00f037b3          	snez	a5,a5
   13f02:	fbad08b7          	lui	a7,0xfbad0
   13f06:	08853803          	ld	a6,136(a0)
   13f0a:	0115e5b3          	or	a1,a1,a7
   13f0e:	0077979b          	slliw	a5,a5,0x7
   13f12:	c10c                	sw	a1,0(a0)
   13f14:	d97c                	sw	a5,116(a0)
   13f16:	02053c23          	sd	zero,56(a0)
   13f1a:	04053023          	sd	zero,64(a0)
   13f1e:	00053c23          	sd	zero,24(a0)
   13f22:	00053423          	sd	zero,8(a0)
   13f26:	00053823          	sd	zero,16(a0)
   13f2a:	02053023          	sd	zero,32(a0)
   13f2e:	02053423          	sd	zero,40(a0)
   13f32:	02053823          	sd	zero,48(a0)
   13f36:	06053423          	sd	zero,104(a0)
   13f3a:	04053423          	sd	zero,72(a0)
   13f3e:	04053823          	sd	zero,80(a0)
   13f42:	04053c23          	sd	zero,88(a0)
   13f46:	06053023          	sd	zero,96(a0)
   13f4a:	08051023          	sh	zero,128(a0)
   13f4e:	00080663          	beqz	a6,0x13f5a
   13f52:	00083023          	sd	zero,0(a6)
   13f56:	00083423          	sd	zero,8(a6)
   13f5a:	0cc52023          	sw	a2,192(a0)
   13f5e:	02064f63          	bltz	a2,0x13f9c
   13f62:	f154                	sd	a3,160(a0)
   13f64:	6422                	ld	s0,8(sp)
   13f66:	0206b823          	sd	zero,48(a3) # 0xfffffffffbad0030
   13f6a:	0206bc23          	sd	zero,56(a3)
   13f6e:	0006b823          	sd	zero,16(a3)
   13f72:	0006b023          	sd	zero,0(a3)
   13f76:	0006b423          	sd	zero,8(a3)
   13f7a:	0006bc23          	sd	zero,24(a3)
   13f7e:	0206b023          	sd	zero,32(a3)
   13f82:	0206b423          	sd	zero,40(a3)
   13f86:	0406b023          	sd	zero,64(a3)
   13f8a:	0406b423          	sd	zero,72(a3)
   13f8e:	0406b823          	sd	zero,80(a3)
   13f92:	f2f8                	sd	a4,224(a3)
   13f94:	0a053423          	sd	zero,168(a0)
   13f98:	0141                	addi	sp,sp,16
   13f9a:	8082                	ret
   13f9c:	6422                	ld	s0,8(sp)
   13f9e:	57fd                	li	a5,-1
   13fa0:	f15c                	sd	a5,160(a0)
   13fa2:	0a053423          	sd	zero,168(a0)
   13fa6:	0141                	addi	sp,sp,16
   13fa8:	8082                	ret
   13faa:	1141                	addi	sp,sp,-16
   13fac:	e422                	sd	s0,8(sp)
   13fae:	0800                	addi	s0,sp,16
   13fb0:	6422                	ld	s0,8(sp)
   13fb2:	4501                	li	a0,0
   13fb4:	0141                	addi	sp,sp,16
   13fb6:	8082                	ret
   13fb8:	1101                	addi	sp,sp,-32
   13fba:	e822                	sd	s0,16(sp)
   13fbc:	e426                	sd	s1,8(sp)
   13fbe:	ec06                	sd	ra,24(sp)
   13fc0:	1000                	addi	s0,sp,32
   13fc2:	84aa                	mv	s1,a0
   13fc4:	7d08                	ld	a0,56(a0)
   13fc6:	c501                	beqz	a0,0x13fce
   13fc8:	409c                	lw	a5,0(s1)
   13fca:	8b85                	andi	a5,a5,1
   13fcc:	c795                	beqz	a5,0x13ff8
   13fce:	70bc                	ld	a5,96(s1)
   13fd0:	c789                	beqz	a5,0x13fda
   13fd2:	0007b423          	sd	zero,8(a5)
   13fd6:	639c                	ld	a5,0(a5)
   13fd8:	ffed                	bnez	a5,0x13fd2
   13fda:	64a8                	ld	a0,72(s1)
   13fdc:	c509                	beqz	a0,0x13fe6
   13fde:	4c6050ef          	jal	0x194a4
   13fe2:	0404b423          	sd	zero,72(s1)
   13fe6:	409c                	lw	a5,0(s1)
   13fe8:	0807f793          	andi	a5,a5,128
   13fec:	ef89                	bnez	a5,0x14006
   13fee:	60e2                	ld	ra,24(sp)
   13ff0:	6442                	ld	s0,16(sp)
   13ff2:	64a2                	ld	s1,8(sp)
   13ff4:	6105                	addi	sp,sp,32
   13ff6:	8082                	ret
   13ff8:	4ac050ef          	jal	0x194a4
   13ffc:	0404b023          	sd	zero,64(s1)
   14000:	0204bc23          	sd	zero,56(s1)
   14004:	b7e9                	j	0x13fce
   14006:	6442                	ld	s0,16(sp)
   14008:	60e2                	ld	ra,24(sp)
   1400a:	8526                	mv	a0,s1
   1400c:	64a2                	ld	s1,8(sp)
   1400e:	6105                	addi	sp,sp,32
   14010:	87aff06f          	j	0x1308a
   14014:	1141                	addi	sp,sp,-16
   14016:	e422                	sd	s0,8(sp)
   14018:	0800                	addi	s0,sp,16
   1401a:	6422                	ld	s0,8(sp)
   1401c:	557d                	li	a0,-1
   1401e:	0141                	addi	sp,sp,16
   14020:	8082                	ret
   14022:	7179                	addi	sp,sp,-48
   14024:	f022                	sd	s0,32(sp)
   14026:	ec26                	sd	s1,24(sp)
   14028:	f406                	sd	ra,40(sp)
   1402a:	1800                	addi	s0,sp,48
   1402c:	651c                	ld	a5,8(a0)
   1402e:	6d18                	ld	a4,24(a0)
   14030:	84aa                	mv	s1,a0
   14032:	00f77863          	bgeu	a4,a5,0x14042
   14036:	fff7c683          	lbu	a3,-1(a5)
   1403a:	0ff5f713          	zext.b	a4,a1
   1403e:	04e68063          	beq	a3,a4,0x1407e
   14042:	e84a                	sd	s2,16(sp)
   14044:	0d84b903          	ld	s2,216(s1)
   14048:	6785                	lui	a5,0x1
   1404a:	0006c717          	auipc	a4,0x6c
   1404e:	d3670713          	addi	a4,a4,-714 # 0x7fd80
   14052:	40e90733          	sub	a4,s2,a4
   14056:	92f78793          	addi	a5,a5,-1745 # 0x92f
   1405a:	02e7e663          	bltu	a5,a4,0x14086
   1405e:	03093783          	ld	a5,48(s2)
   14062:	8526                	mv	a0,s1
   14064:	9782                	jalr	a5
   14066:	57fd                	li	a5,-1
   14068:	6942                	ld	s2,16(sp)
   1406a:	00f50563          	beq	a0,a5,0x14074
   1406e:	409c                	lw	a5,0(s1)
   14070:	9bbd                	andi	a5,a5,-17
   14072:	c09c                	sw	a5,0(s1)
   14074:	70a2                	ld	ra,40(sp)
   14076:	7402                	ld	s0,32(sp)
